MPASM 5.84                          MAIN.ASM   8-14-2020  22:31:19         PAGE  1


LOC  OBJECT CODE     LINE SOURCE TEXT
  VALUE

                      00001     ;*******************************************************************************
                      00002 ;                                                                              *
                      00003 ;    Microchip licenses this software to you solely for use with Microchip     *
                      00004 ;    products. The software is owned by Microchip and/or its licensors, and is *
                      00005 ;    protected under applicable copyright laws.  All rights reserved.          *
                      00006 ;                                                                              *
                      00007 ;    This software and any accompanying information is for suggestion only.    *
                      00008 ;    It shall not be deemed to modify Microchip?s standard warranty for its    *
                      00009 ;    products.  It is your responsibility to ensure that this software meets   *
                      00010 ;    your requirements.                                                        *
                      00011 ;                                                                              *
                      00012 ;    SOFTWARE IS PROVIDED "AS IS".  MICROCHIP AND ITS LICENSORS EXPRESSLY      *
                      00013 ;    DISCLAIM ANY WARRANTY OF ANY KIND, WHETHER EXPRESS OR IMPLIED, INCLUDING  *
                      00014 ;    BUT NOT LIMITED TO, THE IMPLIED WARRANTIES OF MERCHANTABILITY, FITNESS    *
                      00015 ;    FOR A PARTICULAR PURPOSE, OR NON-INFRINGEMENT. IN NO EVENT SHALL          *
                      00016 ;    MICROCHIP OR ITS LICENSORS BE LIABLE FOR ANY INCIDENTAL, SPECIAL,         *
                      00017 ;    INDIRECT OR CONSEQUENTIAL DAMAGES, LOST PROFITS OR LOST DATA, HARM TO     *
                      00018 ;    YOUR EQUIPMENT, COST OF PROCUREMENT OF SUBSTITUTE GOODS, TECHNOLOGY OR    *
                      00019 ;    SERVICES, ANY CLAIMS BY THIRD PARTIES (INCLUDING BUT NOT LIMITED TO ANY   *
                      00020 ;    DEFENSE THEREOF), ANY CLAIMS FOR INDEMNITY OR CONTRIBUTION, OR OTHER      *
                      00021 ;    SIMILAR COSTS.                                                            *
                      00022 ;                                                                              *
                      00023 ;    To the fullest extend allowed by law, Microchip and its licensors         *
                      00024 ;    liability shall not exceed the amount of fee, if any, that you have paid  *
                      00025 ;    directly to Microchip to use this software.                               *
                      00026 ;                                                                              *
                      00027 ;    MICROCHIP PROVIDES THIS SOFTWARE CONDITIONALLY UPON YOUR ACCEPTANCE OF    *
                      00028 ;    THESE TERMS.                                                              *
                      00029 ;                                                                              *
                      00030 ;*******************************************************************************
                      00031 ;                                                                              *
                      00032 ;    Filename:                  Usando TMR0                                               *
                      00033 ;    Date:                            10/08/2020                       *
                      00034 ;    File Version:                           V1                         *
                      00035 ;    Author:           ANGEL ORELLANA                             *
                      00036 ;    Company:          UVG                             *
                      00037 ;    Description:         LABORATORIO 3 DE PROGRAMACION DE MICROS                                       
                                      *
                      00038 ;                                                                              *
                      00039 ;*******************************************************************************
                      00040 ;                                                                              *
                      00041 ;    Notes: In the MPLAB X Help, refer to the MPASM Assembler documentation    *
                      00042 ;    for information on assembly instructions.                                 *
                      00043 ;                                                                              *
                      00044 ;*******************************************************************************
                      00045 ;                                                                              *
                      00046 ;    Known Issues: This template is designed for relocatable code.  As such,   *
                      00047 ;    build errors such as "Directive only allowed when generating an object    *
                      00048 ;    file" will result when the 'Build in Absolute Mode' checkbox is selected  *
                      00049 ;    in the project properties.  Designing code in absolute mode is            *
                      00050 ;    antiquated - use relocatable mode.                                        *
                      00051 ;                                                                              *
                      00052 ;*******************************************************************************
MPASM 5.84                          MAIN.ASM   8-14-2020  22:31:19         PAGE  2


LOC  OBJECT CODE     LINE SOURCE TEXT
  VALUE

                      00053 ;                                                                              *
                      00054 ;    Revision History:                                                         *
                      00055 ;                                                                              *
                      00056 ;*******************************************************************************
                      00057 
                      00058 
                      00059 
                      00060 ;*******************************************************************************
                      00061 ; Processor Inclusion
                      00062 ;
                      00063 ; TODO Step #1 Open the task list under Window > Tasks.  Include your
                      00064 ; device .inc file - e.g. #include <device_name>.inc.  Available
                      00065 ; include files are in C:\Program Files\Microchip\MPLABX\mpasmx
                      00066 ; assuming the default installation path for MPLAB X.  You may manually find
                      00067 ; the appropriate include file for your device here and include it, or
                      00068 ; simply copy the include generated by the configuration bits
                      00069 ; generator (see Step #2).
                      00070 ;
                      00071 ;*******************************************************************************
                      00072 
                      00073 ; TODO INSERT INCLUDE CODE HERE
                      00074     #include "p16f887.inc"
                      00001         LIST
                      00002 
                      00003 ;==========================================================================
                      00004 ; Build date : Mar 17 2019
                      00005 ;  MPASM PIC16F887 processor include
                      00006 ; 
                      00007 ;  (c) Copyright 1999-2019 Microchip Technology, All rights reserved
                      00008 ;==========================================================================
                      00009 
                      00810         LIST
                      00075     ; CONFIG1
                      00076 ; __config 0xE0D4
2007   20D4           00077  __CONFIG _CONFIG1, _FOSC_INTRC_NOCLKOUT & _WDTE_OFF & _PWRTE_OFF & _MCLRE_OFF & _CP_OFF & _CPD_OFF & _B
                            OREN_OFF & _IESO_OFF & _FCMEN_OFF & _LVP_OFF
                      00078 ; CONFIG2
                      00079 ; __config 0xFFFF
2008   3FFF           00080  __CONFIG _CONFIG2, _BOR4V_BOR40V & _WRT_OFF
                      00081 
                      00082 
                      00083 ;*******************************************************************************
                      00084 ;
                      00085 ; TODO Step #2 - Configuration Word Setup
                      00086 ;
                      00087 ; The 'CONFIG' directive is used to embed the configuration word within the
                      00088 ; .asm file. MPLAB X requires users to embed their configuration words
                      00089 ; into source code.  See the device datasheet for additional information
                      00090 ; on configuration word settings.  Device configuration bits descriptions
                      00091 ; are in C:\Program Files\Microchip\MPLABX\mpasmx\P<device_name>.inc
                      00092 ; (may change depending on your MPLAB X installation directory).
                      00093 ;
                      00094 ; MPLAB X has a feature which generates configuration bits source code.  Go to
MPASM 5.84                          MAIN.ASM   8-14-2020  22:31:19         PAGE  3


LOC  OBJECT CODE     LINE SOURCE TEXT
  VALUE

                      00095 ; Window > PIC Memory Views > Configuration Bits.  Configure each field as
                      00096 ; needed and select 'Generate Source Code to Output'.  The resulting code which
                      00097 ; appears in the 'Output Window' > 'Config Bits Source' tab may be copied
                      00098 ; below.
                      00099 ;
                      00100 ;*******************************************************************************
                      00101 
                      00102 ; TODO INSERT CONFIG HERE
                      00103 
                      00104 ;*******************************************************************************
                      00105 ;
                      00106 ; TODO Step #3 - Variable Definitions
                      00107 ;
                      00108 ; Refer to datasheet for available data memory (RAM) organization assuming
                      00109 ; relocatible code organization (which is an option in project
                      00110 ; properties > mpasm (Global Options)).  Absolute mode generally should
                      00111 ; be used sparingly.
                      00112 ;
                      00113 ; Example of using GPR Uninitialized Data
                      00114 ;
                      00115 ;   GPR_VAR        UDATA
                      00116 ;   MYVAR1         RES        1      ; User variable linker places
                      00117 ;   MYVAR2         RES        1      ; User variable linker places
                      00118 ;   MYVAR3         RES        1      ; User variable linker places
                      00119 ;
                      00120 ;   ; Example of using Access Uninitialized Data Section (when available)
                      00121 ;   ; The variables for the context saving in the device datasheet may need
                      00122 ;   ; memory reserved here.
                      00123 ;   INT_VAR        UDATA_ACS
                      00124 ;   W_TEMP         RES        1      ; w register for context saving (ACCESS)
                      00125 ;   STATUS_TEMP    RES        1      ; status used for context saving
                      00126 ;   BSR_TEMP       RES        1      ; bank select used for ISR context saving
                      00127 ;
                      00128 ;*******************************************************************************
                      00129 
                      00130 ; TODO PLACE VARIABLE DEFINITIONS GO HERE
Warning[207]: Found label after column 1. (PUNTERO_7S)
  00000020            00131  PUNTERO_7S EQU H'20' ;CONSTANTE USADA PARA EL DIRECCIONAMIENTO INDIRECTO
                      00132  ;PARA ACCEDER A LAS POSICIONES 0X20 A 0X2F EN DONDE SE ENCONTRARAN GUARDADOS
                      00133  ;LAS CONFIGURACIONES DE BITS PARA MOSTRAR LOS VALORES EN UN 7 SEGMENTOS DE CATODO COMUN
                      00134  ;NO USAR POSICIONES DESDE OX20 HASTA OX2F, AFECTARA LO MOSTRADO EN EL DISPLAY
Warning[207]: Found label after column 1. (CONTADOR)
  00000030            00135  CONTADOR EQU H'30'
Warning[207]: Found label after column 1. (SUBCONT)
  00000031            00136  SUBCONT EQU  H'31'
Warning[207]: Found label after column 1. (DELAYMED)
  00000032            00137  DELAYMED EQU H'32'
Warning[207]: Found label after column 1. (DELAYSMALL)
  00000033            00138  DELAYSMALL EQU H'33'
Warning[207]: Found label after column 1. (CONTADORBUTTON)
  00000034            00139  CONTADORBUTTON EQU H'34'
Warning[207]: Found label after column 1. (ANTIREB)
  00000035            00140  ANTIREB    EQU H'35'
MPASM 5.84                          MAIN.ASM   8-14-2020  22:31:19         PAGE  4


LOC  OBJECT CODE     LINE SOURCE TEXT
  VALUE

Warning[207]: Found label after column 1. (ALARMA)
  00000036            00141  ALARMA     EQU H'36'
                      00142 ;*******************************************************************************
                      00143 ; Reset Vector
                      00144 ;*******************************************************************************
                      00145 
                      00146 RES_VECT  CODE    0x0000            ; processor reset vector
0000   2???           00147     GOTO    START                   ; go to beginning of program
                      00148 
                      00149 ;*******************************************************************************
                      00150 ; TODO Step #4 - Interrupt Service Routines
                      00151 ;
                      00152 ; There are a few different ways to structure interrupt routines in the 8
                      00153 ; bit device families.  On PIC18's the high priority and low priority
                      00154 ; interrupts are located at 0x0008 and 0x0018, respectively.  On PIC16's and
                      00155 ; lower the interrupt is at 0x0004.  Between device families there is subtle
                      00156 ; variation in the both the hardware supporting the ISR (for restoring
                      00157 ; interrupt context) as well as the software used to restore the context
                      00158 ; (without corrupting the STATUS bits).
                      00159 ;
                      00160 ; General formats are shown below in relocatible format.
                      00161 ;
                      00162 ;------------------------------PIC16's and below--------------------------------
                      00163 ;
                      00164 ; ISR       CODE    0x0004           ; interrupt vector location
                      00165 ;
                      00166 ;     <Search the device datasheet for 'context' and copy interrupt
                      00167 ;     context saving code here.  Older devices need context saving code,
                      00168 ;     but newer devices like the 16F#### don't need context saving code.>
                      00169 ;
                      00170 ;     RETFIE
                      00171 ;
                      00172 ;----------------------------------PIC18's--------------------------------------
                      00173 ;
                      00174 ; ISRHV     CODE    0x0008
                      00175 ;     GOTO    HIGH_ISR
                      00176 ; ISRLV     CODE    0x0018
                      00177 ;     GOTO    LOW_ISR
                      00178 ;
                      00179 ; ISRH      CODE                     ; let linker place high ISR routine
                      00180 ; HIGH_ISR
                      00181 ;     <Insert High Priority ISR Here - no SW context saving>
                      00182 ;     RETFIE  FAST
                      00183 ;
                      00184 ; ISRL      CODE                     ; let linker place low ISR routine
                      00185 ; LOW_ISR
                      00186 ;       <Search the device datasheet for 'context' and copy interrupt
                      00187 ;       context saving code here>
                      00188 ;     RETFIE
                      00189 ;
                      00190 ;*******************************************************************************
                      00191 
                      00192 ; TODO INSERT ISR HERE
MPASM 5.84                          MAIN.ASM   8-14-2020  22:31:19         PAGE  5


LOC  OBJECT CODE     LINE SOURCE TEXT
  VALUE

                      00193 
                      00194 ;*******************************************************************************
                      00195 ; MAIN PROGRAM
                      00196 ;*******************************************************************************
                      00197 
                      00198 MAIN_PROG CODE                      ; let linker place main program
0000                  00199 START
                      00200     
0000   1683           00201     BSF STATUS,5
0001   1303           00202     BCF STATUS,6 ;IR A BANCO 1
                      00203     
Message[302]: Register in operand not in bank 0.  Ensure that bank bits are correct.
0002   0187           00204     CLRF    TRISC ;PUERTO C COMO SALIDA PARA EL DISPLAY
0003   30E0           00205     MOVLW   B'11100000' ;RB7-RB5 COMO ENTRADA, RB0-RB4 COMO SALIDA, LOS PRIMEROS 4 BITS PARA LOS 
                      00206     ;LED DEL CONTADOR DEL TMR0 Y EL 5 COMO EL LED QUE SE ENCIENDE AL LLEGAR AL LIMITE ESTABLECIDO
Message[302]: Register in operand not in bank 0.  Ensure that bank bits are correct.
0004   0086           00207     MOVWF   TRISB
                      00208     
0005   1703           00209     BSF STATUS,6 ;IR AL BANCO 3
Message[302]: Register in operand not in bank 0.  Ensure that bank bits are correct.
0006   0189           00210     CLRF    ANSELH      ;PUERTO B EN MODO DIGITAL
0007   3050           00211     MOVLW   B'01010000' ;
Message[302]: Register in operand not in bank 0.  Ensure that bank bits are correct.
0008   0501           00212     ANDWF   OPTION_REG,W ; EN W QUEDA EL DATO : 0X0X0000
0009   3807           00213     IORLW   B'00000111' ;SE ACTIVAN LAS RESISTENCIAS DE PULLUP PREESCALER EN TMRO 
Message[302]: Register in operand not in bank 0.  Ensure that bank bits are correct.
000A   0081           00214     MOVWF   OPTION_REG  ;CON VALOR 1:256 Y USA LA FUENTE DE OSCILADOR INTERNA
                      00215     
                      00216     
                      00217     
000B   1283           00218     BCF STATUS,5
000C   1303           00219     BCF STATUS,6 ; BANCO CERO
                      00220     
                      00221     
000D   1383           00222     BCF STATUS,7 ;BANCOS 0 Y 1 PARA EL DIRECCIONAMIENTO INDIRECTO
000E   3020           00223     MOVLW   PUNTERO_7S ;COLOCA EL VALOR DE LA MEMORIA PARA EL DIRECCIONAMIENTO INDIRECTO
000F   0084           00224     MOVWF   FSR
                      00225     ; SE COLOCAN LOS VALORES PARA EL 7 SEGMENTOS ORDEN DEL PUERTO HACIA EL DISPLAY:
                      00226         ;  PCDEGFAB
0010   3077           00227     MOVLW B'01110111'  ; 0  EN EL DISPLAY
0011   0080           00228     MOVWF   INDF
0012   0A84           00229     INCF    FSR,F  ;0X21
0013   3041           00230     MOVLW B'01000001' ;1
0014   0080           00231     MOVWF   INDF
0015   0A84           00232     INCF    FSR,F ;0X22
0016   303B           00233     MOVLW B'00111011' ;2
0017   0080           00234     MOVWF   INDF
0018   0A84           00235     INCF    FSR,F ;0X23
0019   306B           00236     MOVLW B'01101011';3
001A   0080           00237     MOVWF   INDF
001B   0A84           00238     INCF FSR,F ;OX24
001C   304D           00239     MOVLW B'01001101';4
001D   0080           00240     MOVWF   INDF ;OX25
MPASM 5.84                          MAIN.ASM   8-14-2020  22:31:19         PAGE  6


LOC  OBJECT CODE     LINE SOURCE TEXT
  VALUE

001E   0A84           00241     INCF FSR,F
001F   306E           00242     MOVLW   B'01101110' ;5
0020   0080           00243     MOVWF   INDF
0021   0A84           00244     INCF    FSR,F ;OX26
0022   307E           00245     MOVLW B'01111110'
0023   0080           00246     MOVWF   INDF
0024   0A84           00247     INCF    FSR,F ;0X27
0025   3043           00248     MOVLW   B'01000011' ;7
0026   0080           00249     MOVWF   INDF
0027   0A84           00250     INCF    FSR,F;OX28
0028   307F           00251     MOVLW   B'01111111'
0029   0080           00252     MOVWF   INDF
002A   0A84           00253     INCF    FSR,F;OX29
002B   306F           00254     MOVLW   B'01101111'
002C   0080           00255     MOVWF   INDF
002D   0A84           00256     INCF    FSR,F;OX2A
002E   305F           00257     MOVLW   B'01011111'
002F   0080           00258     MOVWF   INDF
0030   0A84           00259     INCF    FSR,F;OX2B
0031   307C           00260     MOVLW   B'01111100'
0032   0080           00261     MOVWF   INDF
0033   0A84           00262     INCF    FSR,F;OX2C
0034   3036           00263     MOVLW   B'00110110'
0035   0080           00264     MOVWF   INDF
0036   0A84           00265     INCF    FSR,F;OX2D
0037   3079           00266     MOVLW   B'01111001'
0038   0080           00267     MOVWF   INDF
0039   0A84           00268     INCF    FSR,F;OX2E
003A   303E           00269     MOVLW   B'00111110'
003B   0080           00270     MOVWF   INDF
003C   0A84           00271     INCF    FSR,F;OX2F
003D   301E           00272     MOVLW   B'00011110'
003E   0080           00273     MOVWF   INDF
                      00274    
003F   303C           00275     MOVLW .60
0040   0081           00276     MOVWF  TMR0 ; SE COLOCA EN 60 EL VALOR DEL TIMER 0
                      00277     
0041   300A           00278     MOVLW .10
0042   00B1           00279     MOVWF  SUBCONT
                      00280     
0043   0820           00281     MOVFW   PUNTERO_7S
0044   0087           00282     MOVWF   PORTC ;INICIAR CON VALOR 0 EN DISPLAY
0045   01B4           00283     CLRF   CONTADORBUTTON ;INICIAR CON 0 EN ESTE REGISTRO
0046   01B0           00284     CLRF  CONTADOR  ;INICIAR EN 0 EL CONTADOR PARA EL TMR
0047   0186           00285     CLRF  PORTB ;SE LIMPA LA SALIDA DEL PUERTO B
0048   01B6           00286     CLRF  ALARMA ;LA ALARMA SE COLOCA EN 0
0049                  00287 LOOP:
0049   0806           00288     MOVFW   PORTB
004A   00B5           00289     MOVWF   ANTIREB
004B   2???           00290     CALL DELAY_MED   ;ANTIRREBOTE
004C   1EB5           00291     BTFSS   ANTIREB,5 ;INCREMENTA SI SE PRESIONA EL BOTON
004D   2???           00292     CALL INCREMENTO
004E   1F35           00293     BTFSS   ANTIREB,6 ;DECREMENTA 
MPASM 5.84                          MAIN.ASM   8-14-2020  22:31:19         PAGE  7


LOC  OBJECT CODE     LINE SOURCE TEXT
  VALUE

004F   2???           00294     CALL DECREMENTO
0050   190B           00295     BTFSC INTCON,2
0051   2???           00296     CALL CONTAR_TMR
                      00297    
                      00298     
                      00299     ;SE COMPARA SI EL CONTADOR ES IGUAL QUE EL CONTADOR CON BOTON
0052   0830           00300     MOVFW   CONTADOR
0053   0234           00301     SUBWF   CONTADORBUTTON,W
0054   1903           00302     BTFSC   STATUS,2 ; BIT C DE ESTATUS SE COLOCA EN 1 SI LA OPERACION CREA UN ACCARREO EN EL BIT MAS
0055   2???           00303     CALL SONAR_ALARMA; SIGNIFICATIVO AL RESTAR, SIGNIFICA QUE SI HUBO ACARREO, LA RESTA DIO UN VALOR
                      00304     ;MAYOR QUE 0 Y SI NO HUBO ACARREO ES QUE LA RESTA DIO UN NUMERO MENOR QUE CERO
0056   1C03           00305     BTFSS STATUS,0 ; SI LA OPERACION ANTERIOR NO DA CERO SE COMPRUEBA SI CONTADOR > CONTADOR BUTTON
0057   2???           00306     CALL SONAR_ALARMA_SI0 ;EN DICHO CASO TAMBIEN EL LED CAMBIA DE ESTADO
                      00307     
                      00308     
                      00309     
0058   2???           00310     GOTO LOOP
0059                  00311 SONAR_ALARMA_SI0:
0059   30F0           00312      MOVLW   B'11110000' ; AL HACER AND ENTRE EL PUERTO B Y EL VALOR 11110000 SE CONSERVAN LOS DATOS 
005A   0586           00313     ANDWF   PORTB,F;QUE SE ENCUENTREN EN LOS ULTIMOS 4 BITS Y SE COLOCAN A 0 LOS PRIMEROS 4 BIS
005B                  00314 SONAR_ALARMA:
005B   1836           00315     BTFSC  ALARMA,0
005C   1606           00316     BSF PORTB,4
005D   1C36           00317     BTFSS       ALARMA, 0
005E   1206           00318     BCF PORTB,4
                      00319     
005F   01B0           00320     CLRF CONTADOR ; SE REINICIA EL CONTADOR
0060   300A           00321     MOVLW   .10
0061   00B1           00322     MOVWF   SUBCONT ;Y EL SUBCONTADOR TAMBIEN 
0062   303C           00323     MOVLW .60
                      00324  ;   MOVWF   TMR0 ; SE REINICIA EL TIMMER
                      00325  ;    BCF       INTCON,2 ;SE COLOCA EN 0 EL FLAG DE OVERFLOW EN EL TMR0
0063   30FF           00326     MOVLW   .255 ; SE COLOCAN TODOS LOS BIS PARA LUEGO HACER UN XOR CON EL VALOR EN ALARMA
0064   06B6           00327     XORWF   ALARMA,F ; SI EL PRIMER BIT DE ALARMA ES 1 AL HACER XOR CON 1 SE VULEVE 0 SI ES 0 AL HACER X
                            OR CON 1 SE VUELVE 1
0065   0008           00328     RETURN
                      00329     
0066                  00330 CONTAR_TMR:
0066   03B1           00331     DECF    SUBCONT,F
0067   1903           00332     BTFSC   STATUS,2
0068   2???           00333     CALL INC_CONTADOR
0069   303C           00334     MOVLW   .60
006A   0081           00335     MOVWF TMR0
006B   110B           00336     BCF INTCON, 2
006C   0008           00337     RETURN
                      00338     
006D                  00339 INC_CONTADOR:
006D   300A           00340     MOVLW .10
006E   00B1           00341     MOVWF   SUBCONT ;SE COLOCA EN 10 EL SUBCONTADOR
006F   0AB0           00342     INCF    CONTADOR,F
0070   1A30           00343     BTFSC   CONTADOR,4
0071   01B0           00344     CLRF CONTADOR
0072                  00345 PRINT_B:
MPASM 5.84                          MAIN.ASM   8-14-2020  22:31:19         PAGE  8


LOC  OBJECT CODE     LINE SOURCE TEXT
  VALUE

0072   30F0           00346     MOVLW   B'11110000' ; AL HACER AND ENTRE EL PUERTO B Y EL VALOR 11110000 SE CONSERVAN LOS DATOS 
0073   0506           00347     ANDWF   PORTB,W     ;QUE SE ENCUENTREN EN LOS ULTIMOS 4 BITS Y SE COLOCAN A 0 LOS PRIMEROS 4 BIS
0074   0730           00348     ADDWF   CONTADOR,W; YA QUE CONTADOR COMO MUCHO VALE 15, ENTONCES NO AFECTA AL SUMARSE
0075   0086           00349     MOVWF   PORTB   ; CON W HACIENDO QUE EN EL PUERTO B QUEDE LA INFORMACION DEL NIBBLE MAS ALTO
0076   0008           00350     RETURN  ;INTACTA Y EL VALOR DE CONTADOR QUEDA EN EL NIBBLE MAS BAJO
                      00351     
0077                  00352 INCREMENTO:
0077   1A86           00353     BTFSC PORTB,5       ; SE INCREMENTA EL VALOR DE LA VARIABLE SI ESTA EXCEDE DE 15 SE REINICIA A 0
0078   0AB4           00354     INCF    CONTADORBUTTON,F
0079   1A34           00355     BTFSC   CONTADORBUTTON,4
007A   01B4           00356     CLRF    CONTADORBUTTON
007B   2???           00357     CALL MOSTRAR7S
007C   0008           00358     RETURN
                      00359     
007D                  00360 MOSTRAR7S:
007D   3020           00361     MOVLW   PUNTERO_7S      ; SE MUVE EL VALOR 0X20 AL REGISTRO W, EL CUAL ES EL VALOR DE DIRECCION
007E   0734           00362     ADDWF   CONTADORBUTTON,W ; DE MEMORIA PARA MOSTRAR UN CERO EN EL 7 SEGMENTOS
007F   0084           00363     MOVWF   FSR ; LUEGO SE SUMA CON VARIABLE CONTADOR BUTTON, Y SE MUEVE A FSR PARA EL 
0080   0800           00364     MOVFW   INDF    ;DIRECCIONAMIENTO INDIRECTO, SE OBTIENE EL VALOR DEL REGISTRO CON DIRECCION
0081   0087           00365     MOVWF   PORTC   ; IGUAL A ESA SUMA Y LUEGO SE ENVIA AL PUERTO C
0082   0008           00366     RETURN
                      00367     
0083                  00368 DECREMENTO:
0083   300F           00369     MOVLW   .15
0084   1B06           00370     BTFSC   PORTB,6
0085   03B4           00371     DECF    CONTADORBUTTON,F        ; SE INCREMENTA EL VALOR DE LA VARIABLE QUE CONTROLA EL 
0086   1BB4           00372     BTFSC   CONTADORBUTTON,7    ; 7 SEGMENTOS SI EL CONTADOR LLEGA A -1 ESTE SE REINICIA Y SE 
0087   00B4           00373     MOVWF   CONTADORBUTTON  ; COLOCA UN VALOR DE 0 
0088   2???           00374     CALL MOSTRAR7S
0089   0008           00375     RETURN
                      00376     
008A                  00377 DELAY_MED: ;RETARDO DE APROXIMADAMENTE 19.328 mS 
008A   3002           00378     MOVLW .2    
008B   00B2           00379     MOVWF   DELAYMED
008C                  00380 LOOP_DELAY  
008C   2???           00381     CALL DELAY_SMALL
008D   0BB2           00382     DECFSZ DELAYMED,F
008E   2???           00383     GOTO LOOP_DELAY
Warning[203]: Found opcode in column 1. (RETURN)
008F   0008           00384 RETURN
0090                  00385 DELAY_SMALL: ;768 uS
0090   30FF           00386     MOVLW   .255
0091   00B3           00387     MOVWF   DELAYSMALL
0092   0BB3           00388     DECFSZ        DELAYSMALL,F
0093   2???           00389     GOTO    $-1
Warning[203]: Found opcode in column 1. (RETURN)
0094   0008           00390 RETURN
                      00391 
20D4 3FFF             00392     END
MPASM 5.84                          MAIN.ASM   8-14-2020  22:31:19         PAGE  9


SYMBOL TABLE
  LABEL                             VALUE 

ABDEN                             00000000
ABDOVF                            00000007
ACKDT                             00000005
ACKEN                             00000004
ACKSTAT                           00000006
ADCON0                            0000001F
ADCON1                            0000009F
ADCS0                             00000006
ADCS1                             00000007
ADDEN                             00000003
ADFM                              00000007
ADIE                              00000006
ADIF                              00000006
ADON                              00000000
ADRESH                            0000001E
ADRESL                            0000009E
ALARMA                            00000036
ANS0                              00000000
ANS1                              00000001
ANS10                             00000002
ANS11                             00000003
ANS12                             00000004
ANS13                             00000005
ANS2                              00000002
ANS3                              00000003
ANS4                              00000004
ANS5                              00000005
ANS6                              00000006
ANS7                              00000007
ANS8                              00000000
ANS9                              00000001
ANSEL                             00000188
ANSELH                            00000189
ANTIREB                           00000035
BAUDCTL                           00000187
BCLIE                             00000003
BCLIF                             00000003
BF                                00000000
BRG0                              00000000
BRG1                              00000001
BRG10                             00000002
BRG11                             00000003
BRG12                             00000004
BRG13                             00000005
BRG14                             00000006
BRG15                             00000007
BRG16                             00000003
BRG2                              00000002
BRG3                              00000003
BRG4                              00000004
BRG5                              00000005
BRG6                              00000006
BRG7                              00000007
MPASM 5.84                          MAIN.ASM   8-14-2020  22:31:19         PAGE 10


SYMBOL TABLE
  LABEL                             VALUE 

BRG8                              00000000
BRG9                              00000001
BRGH                              00000002
C                                 00000000
C1CH0                             00000000
C1CH1                             00000001
C1IE                              00000005
C1IF                              00000005
C1OE                              00000005
C1ON                              00000007
C1OUT                             00000006
C1POL                             00000004
C1R                               00000002
C1RSEL                            00000005
C1SEN                             00000005
C2CH0                             00000000
C2CH1                             00000001
C2IE                              00000006
C2IF                              00000006
C2OE                              00000005
C2ON                              00000007
C2OUT                             00000006
C2POL                             00000004
C2R                               00000002
C2REN                             00000004
C2RSEL                            00000004
C2SYNC                            00000000
CCP1CON                           00000017
CCP1IE                            00000002
CCP1IF                            00000002
CCP1M0                            00000000
CCP1M1                            00000001
CCP1M2                            00000002
CCP1M3                            00000003
CCP1X                             00000005
CCP1Y                             00000004
CCP2CON                           0000001D
CCP2IE                            00000000
CCP2IF                            00000000
CCP2M0                            00000000
CCP2M1                            00000001
CCP2M2                            00000002
CCP2M3                            00000003
CCP2X                             00000005
CCP2Y                             00000004
CCPR1                             00000015
CCPR1H                            00000016
CCPR1L                            00000015
CCPR2                             0000001B
CCPR2H                            0000001C
CCPR2L                            0000001B
CHS0                              00000002
CHS1                              00000003
MPASM 5.84                          MAIN.ASM   8-14-2020  22:31:19         PAGE 11


SYMBOL TABLE
  LABEL                             VALUE 

CHS2                              00000004
CHS3                              00000005
CKE                               00000006
CKP                               00000004
CM1CON0                           00000107
CM2CON0                           00000108
CM2CON1                           00000109
CONTADOR                          00000030
CONTADORBUTTON                    00000034
CONTAR_TMR                        00000066
CREN                              00000004
CSRC                              00000007
D                                 00000005
DATA_ADDRESS                      00000005
DC                                00000001
DC1B0                             00000004
DC1B1                             00000005
DC2B0                             00000004
DC2B1                             00000005
DECREMENTO                        00000083
DELAYMED                          00000032
DELAYSMALL                        00000033
DELAY_MED                         0000008A
DELAY_SMALL                       00000090
D_A                               00000005
D_NOT_A                           00000005
ECCPAS                            0000009C
ECCPAS0                           00000004
ECCPAS1                           00000005
ECCPAS2                           00000006
ECCPASE                           00000007
EEADR                             0000010D
EEADRH                            0000010F
EECON1                            0000018C
EECON2                            0000018D
EEDAT                             0000010C
EEDATA                            0000010C
EEDATH                            0000010E
EEIE                              00000004
EEIF                              00000004
EEPGD                             00000007
F                                 00000001
FERR                              00000002
FSR                               00000004
FVREN                             00000000
GCEN                              00000007
GIE                               00000007
GO                                00000001
GO_DONE                           00000001
GO_NOT_DONE                       00000001
HTS                               00000002
I2C_DATA                          00000005
I2C_READ                          00000002
MPASM 5.84                          MAIN.ASM   8-14-2020  22:31:19         PAGE 12


SYMBOL TABLE
  LABEL                             VALUE 

I2C_START                         00000003
I2C_STOP                          00000004
INCREMENTO                        00000077
INC_CONTADOR                      0000006D
INDF                              00000000
INTCON                            0000000B
INTE                              00000004
INTEDG                            00000006
INTF                              00000001
IOCB                              00000096
IOCB0                             00000000
IOCB1                             00000001
IOCB2                             00000002
IOCB3                             00000003
IOCB4                             00000004
IOCB5                             00000005
IOCB6                             00000006
IOCB7                             00000007
IRCF0                             00000004
IRCF1                             00000005
IRCF2                             00000006
IRP                               00000007
LOOP                              00000049
LOOP_DELAY                        0000008C
LTS                               00000001
MC1OUT                            00000007
MC2OUT                            00000006
MOSTRAR7S                         0000007D
MSK                               00000093
MSK0                              00000000
MSK1                              00000001
MSK2                              00000002
MSK3                              00000003
MSK4                              00000004
MSK5                              00000005
MSK6                              00000006
MSK7                              00000007
NOT_A                             00000005
NOT_ADDRESS                       00000005
NOT_BO                            00000000
NOT_BOR                           00000000
NOT_DONE                          00000001
NOT_PD                            00000003
NOT_POR                           00000001
NOT_RBPU                          00000007
NOT_RC8                           00000006
NOT_T1SYNC                        00000002
NOT_TO                            00000004
NOT_TX8                           00000006
NOT_W                             00000002
NOT_WRITE                         00000002
OERR                              00000001
OPTION_REG                        00000081
MPASM 5.84                          MAIN.ASM   8-14-2020  22:31:19         PAGE 13


SYMBOL TABLE
  LABEL                             VALUE 

OSCCON                            0000008F
OSCTUNE                           00000090
OSFIE                             00000007
OSFIF                             00000007
OSTS                              00000003
P                                 00000004
P1M0                              00000006
P1M1                              00000007
PCL                               00000002
PCLATH                            0000000A
PCON                              0000008E
PDC0                              00000000
PDC1                              00000001
PDC2                              00000002
PDC3                              00000003
PDC4                              00000004
PDC5                              00000005
PDC6                              00000006
PEIE                              00000006
PEN                               00000002
PIE1                              0000008C
PIE2                              0000008D
PIR1                              0000000C
PIR2                              0000000D
PORTA                             00000005
PORTB                             00000006
PORTC                             00000007
PORTD                             00000008
PORTE                             00000009
PR2                               00000092
PRINT_B                           00000072
PRSEN                             00000007
PS0                               00000000
PS1                               00000001
PS2                               00000002
PSA                               00000003
PSSAC0                            00000002
PSSAC1                            00000003
PSSBD0                            00000000
PSSBD1                            00000001
PSTRCON                           0000009D
PULSR                             00000002
PULSS                             00000003
PUNTERO_7S                        00000020
PWM1CON                           0000009B
R                                 00000002
RA0                               00000000
RA1                               00000001
RA2                               00000002
RA3                               00000003
RA4                               00000004
RA5                               00000005
RA6                               00000006
MPASM 5.84                          MAIN.ASM   8-14-2020  22:31:19         PAGE 14


SYMBOL TABLE
  LABEL                             VALUE 

RA7                               00000007
RB0                               00000000
RB1                               00000001
RB2                               00000002
RB3                               00000003
RB4                               00000004
RB5                               00000005
RB6                               00000006
RB7                               00000007
RBIE                              00000003
RBIF                              00000000
RC0                               00000000
RC1                               00000001
RC2                               00000002
RC3                               00000003
RC4                               00000004
RC5                               00000005
RC6                               00000006
RC7                               00000007
RC8_9                             00000006
RC9                               00000006
RCD8                              00000000
RCEN                              00000003
RCIDL                             00000006
RCIE                              00000005
RCIF                              00000005
RCREG                             0000001A
RCSTA                             00000018
RD                                00000000
RD0                               00000000
RD1                               00000001
RD2                               00000002
RD3                               00000003
RD4                               00000004
RD5                               00000005
RD6                               00000006
RD7                               00000007
RE0                               00000000
RE1                               00000001
RE2                               00000002
RE3                               00000003
READ_WRITE                        00000002
RP0                               00000005
RP1                               00000006
RSEN                              00000001
RX9                               00000006
RX9D                              00000000
R_NOT_W                           00000002
R_W                               00000002
S                                 00000003
SBOREN                            00000004
SCKP                              00000004
SCS                               00000000
MPASM 5.84                          MAIN.ASM   8-14-2020  22:31:19         PAGE 15


SYMBOL TABLE
  LABEL                             VALUE 

SEN                               00000000
SENDB                             00000003
SMP                               00000007
SONAR_ALARMA                      0000005B
SONAR_ALARMA_SI0                  00000059
SPBRG                             00000099
SPBRGH                            0000009A
SPEN                              00000007
SR0                               00000006
SR1                               00000007
SRCON                             00000185
SREN                              00000005
SSPADD                            00000093
SSPBUF                            00000013
SSPCON                            00000014
SSPCON2                           00000091
SSPEN                             00000005
SSPIE                             00000003
SSPIF                             00000003
SSPM0                             00000000
SSPM1                             00000001
SSPM2                             00000002
SSPM3                             00000003
SSPMSK                            00000093
SSPOV                             00000006
SSPSTAT                           00000094
START                             00000000
STATUS                            00000003
STRA                              00000000
STRB                              00000001
STRC                              00000002
STRD                              00000003
STRSYNC                           00000004
SUBCONT                           00000031
SWDTEN                            00000000
SYNC                              00000004
T0CS                              00000005
T0IE                              00000005
T0IF                              00000002
T0SE                              00000004
T1CKPS0                           00000004
T1CKPS1                           00000005
T1CON                             00000010
T1GINV                            00000007
T1GIV                             00000007
T1GSS                             00000001
T1INSYNC                          00000002
T1OSCEN                           00000003
T1SYNC                            00000002
T2CKPS0                           00000000
T2CKPS1                           00000001
T2CON                             00000012
TMR0                              00000001
MPASM 5.84                          MAIN.ASM   8-14-2020  22:31:19         PAGE 16


SYMBOL TABLE
  LABEL                             VALUE 

TMR0IE                            00000005
TMR0IF                            00000002
TMR1                              0000000E
TMR1CS                            00000001
TMR1GE                            00000006
TMR1H                             0000000F
TMR1IE                            00000000
TMR1IF                            00000000
TMR1L                             0000000E
TMR1ON                            00000000
TMR2                              00000011
TMR2IE                            00000001
TMR2IF                            00000001
TMR2ON                            00000002
TOUTPS0                           00000003
TOUTPS1                           00000004
TOUTPS2                           00000005
TOUTPS3                           00000006
TRISA                             00000085
TRISA0                            00000000
TRISA1                            00000001
TRISA2                            00000002
TRISA3                            00000003
TRISA4                            00000004
TRISA5                            00000005
TRISA6                            00000006
TRISA7                            00000007
TRISB                             00000086
TRISB0                            00000000
TRISB1                            00000001
TRISB2                            00000002
TRISB3                            00000003
TRISB4                            00000004
TRISB5                            00000005
TRISB6                            00000006
TRISB7                            00000007
TRISC                             00000087
TRISC0                            00000000
TRISC1                            00000001
TRISC2                            00000002
TRISC3                            00000003
TRISC4                            00000004
TRISC5                            00000005
TRISC6                            00000006
TRISC7                            00000007
TRISD                             00000088
TRISD0                            00000000
TRISD1                            00000001
TRISD2                            00000002
TRISD3                            00000003
TRISD4                            00000004
TRISD5                            00000005
TRISD6                            00000006
MPASM 5.84                          MAIN.ASM   8-14-2020  22:31:19         PAGE 17


SYMBOL TABLE
  LABEL                             VALUE 

TRISD7                            00000007
TRISE                             00000089
TRISE0                            00000000
TRISE1                            00000001
TRISE2                            00000002
TRISE3                            00000003
TRMT                              00000001
TUN0                              00000000
TUN1                              00000001
TUN2                              00000002
TUN3                              00000003
TUN4                              00000004
TX8_9                             00000006
TX9                               00000006
TX9D                              00000000
TXD8                              00000000
TXEN                              00000005
TXIE                              00000004
TXIF                              00000004
TXREG                             00000019
TXSTA                             00000098
UA                                00000001
ULPWUE                            00000005
ULPWUIE                           00000002
ULPWUIF                           00000002
VCFG0                             00000004
VCFG1                             00000005
VR0                               00000000
VR1                               00000001
VR2                               00000002
VR3                               00000003
VRCON                             00000097
VREN                              00000007
VROE                              00000006
VRR                               00000005
VRSS                              00000004
W                                 00000000
WCOL                              00000007
WDTCON                            00000105
WDTPS0                            00000001
WDTPS1                            00000002
WDTPS2                            00000003
WDTPS3                            00000004
WPUB                              00000095
WPUB0                             00000000
WPUB1                             00000001
WPUB2                             00000002
WPUB3                             00000003
WPUB4                             00000004
WPUB5                             00000005
WPUB6                             00000006
WPUB7                             00000007
WR                                00000001
MPASM 5.84                          MAIN.ASM   8-14-2020  22:31:19         PAGE 18


SYMBOL TABLE
  LABEL                             VALUE 

WREN                              00000002
WRERR                             00000003
WUE                               00000001
Z                                 00000002
_BOR21V                           00003EFF
_BOR40V                           00003FFF
_BOR4V_BOR21V                     00003EFF
_BOR4V_BOR40V                     00003FFF
_BOREN_NSLEEP                     00003EFF
_BOREN_OFF                        00003CFF
_BOREN_ON                         00003FFF
_BOREN_SBODEN                     00003DFF
_BOR_NSLEEP                       00003EFF
_BOR_OFF                          00003CFF
_BOR_ON                           00003FFF
_BOR_SBODEN                       00003DFF
_CONFIG1                          00002007
_CONFIG2                          00002008
_CPD_OFF                          00003FFF
_CPD_ON                           00003F7F
_CP_OFF                           00003FFF
_CP_ON                            00003FBF
_DEBUG_OFF                        00003FFF
_DEBUG_ON                         00001FFF
_DEVID1                           00002006
_EC_OSC                           00003FFB
_EXTRC                            00003FFF
_EXTRCIO                          00003FFE
_EXTRC_OSC_CLKOUT                 00003FFF
_EXTRC_OSC_NOCLKOUT               00003FFE
_FCMEN_OFF                        000037FF
_FCMEN_ON                         00003FFF
_FOSC_EC                          00003FFB
_FOSC_EXTRC_CLKOUT                00003FFF
_FOSC_EXTRC_NOCLKOUT              00003FFE
_FOSC_HS                          00003FFA
_FOSC_INTRC_CLKOUT                00003FFD
_FOSC_INTRC_NOCLKOUT              00003FFC
_FOSC_LP                          00003FF8
_FOSC_XT                          00003FF9
_HS_OSC                           00003FFA
_IDLOC0                           00002000
_IDLOC1                           00002001
_IDLOC2                           00002002
_IDLOC3                           00002003
_IESO_OFF                         00003BFF
_IESO_ON                          00003FFF
_INTOSC                           00003FFD
_INTOSCIO                         00003FFC
_INTRC_OSC_CLKOUT                 00003FFD
_INTRC_OSC_NOCLKOUT               00003FFC
_LP_OSC                           00003FF8
_LVP_OFF                          00002FFF
MPASM 5.84                          MAIN.ASM   8-14-2020  22:31:19         PAGE 19


SYMBOL TABLE
  LABEL                             VALUE 

_LVP_ON                           00003FFF
_MAIN_PROG_0093                   00000093
_MCLRE_OFF                        00003FDF
_MCLRE_ON                         00003FFF
_PWRTE_OFF                        00003FFF
_PWRTE_ON                         00003FEF
_WDTE_OFF                         00003FF7
_WDTE_ON                          00003FFF
_WDT_OFF                          00003FF7
_WDT_ON                           00003FFF
_WRT_1FOURTH                      00003BFF
_WRT_256                          00003DFF
_WRT_HALF                         000039FF
_WRT_OFF                          00003FFF
_XT_OSC                           00003FF9
__16F887                          00000001

Errors   :     0
Warnings :    10 reported,     0 suppressed
Messages :     5 reported,     0 suppressed

