MPASM 5.84                          MAIN.ASM   9-22-2020  9:26:37         PAGE  1


LOC  OBJECT CODE     LINE SOURCE TEXT
  VALUE

                      00001 ;*********************************************************************************
                      00002 ;    Filename: Reloj -> Proyecto_Reloj                                          *
                      00003 ;    Date:  22/09/2020                                                          *
                      00004 ;    File Version: v1                                                           *
                      00005 ;    Author: Daniel Mundo                                                               *
                      00006 ;    Company:  UVG                                                              *
                      00007 ;    Description: Reloj digital con tres modos: alarma, fecha & hora                    *
                      00008 ;                  adem?s puede configurarse los tres modos.                            *
                      00009 ;********************************************************************************
                      00010 #include "p16f887.inc"
                      00001         LIST
                      00002 
                      00003 ;==========================================================================
                      00004 ; Build date : Mar 17 2019
                      00005 ;  MPASM PIC16F887 processor include
                      00006 ; 
                      00007 ;  (c) Copyright 1999-2019 Microchip Technology, All rights reserved
                      00008 ;==========================================================================
                      00009 
                      00810         LIST
                      00011 ;********************************************************************************
                      00012 ; CONFIG1
                      00013 ; __config 0x20D4
2007   20D4           00014  __CONFIG _CONFIG1, _FOSC_INTRC_NOCLKOUT & _WDTE_OFF & _PWRTE_OFF & _MCLRE_OFF & _CP_OFF & _CPD_OFF & _B
                            OREN_OFF & _IESO_OFF & _FCMEN_OFF & _LVP_OFF
                      00015 ; CONFIG2
                      00016 ; __config 0x3FFF
2008   3FFF           00017  __CONFIG _CONFIG2, _BOR4V_BOR40V & _WRT_OFF
                      00018 
                      00019 ;********************************************************************************
                      00020 ; TODO Step #3 - Variable Definitions
                      00021 ;********************************************************************************
                      00022 ;Recordar utilizar EQU para comprecion de ciertos parametros con los displays
                      00023 GPR_VAR     UDATA
                      00024 ;*****************************INTERRUPCIONES********************************
0000                  00025 CONT_TRM2       RES         1   ;Variable utilizada para el Timer 2
0001                  00026 CONT_TRM1       RES         1   ;Variable utilizada para el Timer 1
0002                  00027 CONT_TRM0       RES         1    ;Variable utilizada para el Timer 0
0003                  00028 CONT_TRM0_S     RES         1    ;Variable utilizada para el Timer 0
0004                  00029 TEMP_W  RES         1   ;Variable destinada para guardar el valor actual de "W"
0005                  00030 TEMP_STATUS     RES         1   ;Variable destinada para guardar el valor actual de "STATUS"
                      00031 ;********************************ESTADOS**************************************
0006                  00032 CONT_RM RES         1   ;Varible destinada para configuraciones del reloj (minutos)
0007                  00033 CONT_RH RES         1   ;Varible destinada para configuraciones del reloj (hora)
0008                  00034 CONT_AM RES         1   ;Varible destinada para configuraciones de la alarma (minutos)
0009                  00035 CONT_AH RES         1   ;Varible destinada para configuraciones de la alarma (hora)
000A                  00036 CONT_DM RES         1   ;Varible destinada para configuraciones de la fecha (mes)
000B                  00037 CONT_DD RES         1   ;Varible destinada para configuraciones de la fecha (dia)
000C                  00038 BANDERAS        RES         1   ;Variable destinada para la selccion del display
000D                  00039 MODO            RES         1
                      00040 ;*****************************GENERALES***************************************
000E                  00041 ANTIREB RES         1    ;Variable utilizada para el antirebote en los botones
000F                  00042 VAR_H           RES         1   ;Variable destinada para las horas & las siguientes guardan sus nibbles
MPASM 5.84                          MAIN.ASM   9-22-2020  9:26:37         PAGE  2


LOC  OBJECT CODE     LINE SOURCE TEXT
  VALUE

0010                  00043 NIBH_H  RES         1   ;Variable destinada para los nibbles m?s significativos
0011                  00044 NIBH_L  RES         1   ;Variable destinada para los nibbles menos significativos
0012                  00045 VAR_M           RES         1   ;Variable destinada para los minutos
0013                  00046 NIBM_H  RES         1   ;Variable destinada para los nibbles m?s significativos
0014                  00047 NIBM_L  RES         1   ;Variable destinada para los nibbles menos significativos
0015                  00048 LED_500MS       RES         1   ;Variable utilizada para prender/apagar los leds cada 500ms
0016                  00049 VAR_TEMP_MH     RES         1   ;
0017                  00050 VAR_TEMP_H      RES         1   ;
0018                  00051 VAR_TEMP_ML     RES         1   ;
0019                  00052 VAR_TEMP_HL     RES         1   ;
001A                  00053 CONT1           RES         1   ;Variables utilizadas para el delay
001B                  00054 CONT2           RES         1   ;
001C                  00055 EDICION RES         1
001D                  00056 EDIT            RES         1
001E                  00057 FLAGS           RES         1   ;banderas
                      00058                 ;bit 0 si se entro al modo edicion
                      00059 ;*******************************************************************************
                      00060 ; Reset Vector
                      00061 ;*******************************************************************************
                      00062 
                      00063 RES_VECT  CODE    0x0000            ; processor reset vector
0000   2???           00064     GOTO    START                   ; go to beginning of program
                      00065 
                      00066 ;*******************************************************************************
                      00067 ;                            INTERRUPCIONES
                      00068 ;*******************************************************************************
                      00069 ISR_VECT   CODE    0X0004
                      00070    
0004                  00071 SAVE:                                   ;Sirve para guardar el valor actual de:
0004   00??           00072     MOVWF       TEMP_W          ;"W"
0005   0E03           00073     SWAPF       STATUS, W
0006   00??           00074     MOVWF       TEMP_STATUS             ;& STATUS
                      00075         
0007                  00076 ISR:
0007   190B           00077     BTFSC       INTCON, T0IF            ;Se comprueba siempre que la bandera este
0008   2???           00078     GOTO        INT_TRM0                ;encendida para realizar las operaciones de
0009   2???           00079     GOTO        LOAD                    ;la interrupcion.
000A                  00080 INT_TRM0:
000A   303C           00081     MOVLW       .60                     ;Se carga el valor de "n" a la ecucion del TRM0
000B   0081           00082     MOVWF       TMR0                    ;para que este levante la bandera aproximada-
000C   110B           00083     BCF         INTCON, T0IF            ;mente cada 50 ms.
000D   0A??           00084     INCF                CONT_TRM0, F            ;Con cada interrupcion se incrementan las va-
000E   0A??           00085     INCF        CONT_TRM0_S, F  ;riables.
000F                  00086 CADA_500mS:
000F   08??           00087     MOVFW       CONT_TRM0_S             ;Se comprueba si la variable llego a 
0010   3C05           00088     SUBLW       .5                      ;250 ms.
0011   1D03           00089     BTFSS       STATUS, Z
0012   2???           00090     GOTO        MINUTOS         ;En caso de que no, se va a Minutos. 
0013   01??           00091     CLRF                CONT_TRM0_S             ;En caso de que si, se reinicia la variable 
0014   30FF           00092     MOVLW       B'11111111'             ;y se hace un Exclusive OR a la puerto E, que
0015   0689           00093     XORWF       PORTE, F                ;se prende cuando pasen 250ms y se apague cuando pase 500ms.
0016                  00094 MINUTOS:
0016   08??           00095     MOVFW       CONT_TRM0
MPASM 5.84                          MAIN.ASM   9-22-2020  9:26:37         PAGE  3


LOC  OBJECT CODE     LINE SOURCE TEXT
  VALUE

0017   3C78           00096     SUBLW       .120                    ;Se comprueba si ya se llego a un minuto
0018   1D03           00097     BTFSS       STATUS, Z               
0019   2???           00098     GOTO        LOAD                    ;En caso de que no se va LOAD
001A   01??           00099     CLRF                CONT_TRM0               ;En caso de que si se limpia el conteo del TRM0
001B   0A??           00100     INCF                CONT_RM, F              ; y se incrementa en 1 la variable minuto.
001C   303C           00101     MOVLW       .60                     ;Se comprueba si se llego a una hora.
001D   02??           00102     SUBWF       CONT_RM,W               
001E   1D03           00103     BTFSS       STATUS, Z               
001F   2???           00104     GOTO        LOAD                    ;En caso de que no sea asi se va a LOAD.
0020   01??           00105     CLRF                CONT_RM         ;En caso de que si pase se limpia la variable
0021   0A??           00106     INCF                CONT_RH, F              ;de minuto y se incrementa en 1 la de horas.
0022   3018           00107      MOVLW      .24                     ;Se comprueba si ya pasaron 24 horas.
0023   02??           00108     SUBWF       CONT_RH,W
0024   1D03           00109     BTFSS       STATUS, Z
0025   2???           00110     GOTO        LOAD                    ;En caso de que no se va LOAD
0026   01??           00111     CLRF                CONT_RH         ;En caso si haya llegado se reinician las varia-
0027   01??           00112     CLRF                CONT_RM         ;de horas,  minutos y se incrementa en 1
0028   0A??           00113     INCF                CONT_DM, F              ;el dia.
0029                  00114 LOAD:                                   ;Se recupera el valor de:
0029   0E??           00115     SWAPF       TEMP_STATUS, W  
002A   0083           00116     MOVWF       STATUS          ;STATUS
002B   0E??           00117     SWAPF       TEMP_W, F
002C   0E??           00118     SWAPF       TEMP_W, W               ;& de "W"
002D   178B           00119     BSF         INTCON, GIE             ;se habilitan la interrupciones globales
002E   0009           00120     RETFIE
                      00121 ;--------------------------------TABLAS-----------------------------------------
002F                  00122 TABLE:  
002F   0782           00123     ADDWF   PCL, F                      ;La colocacion de los puertos es la siguiente:
                      00124                     ;PCDEGFAB
0030   3477           00125     RETLW       B'01110111'             ;0
0031   3441           00126     RETLW       B'01000001'             ;1
0032   343B           00127     RETLW       B'00111011'             ;2
0033   346B           00128     RETLW       B'01101011'             ;3
0034   344D           00129     RETLW       B'01001101'             ;4
0035   346E           00130     RETLW       B'01101110'             ;5
0036   347E           00131     RETLW       B'01111110'             ;6
0037   3443           00132     RETLW       B'01000011'             ;7
0038   347F           00133     RETLW       B'01111111'             ;8
0039   346F           00134     RETLW       B'01101111'             ;9  
003A   0008           00135     RETURN 
003B                  00136 DISPLAY:                                ;Funcion general utilizada para mostrar los  
003B   0188           00137     CLRF                PORTD                   ;valores de las variables.
003C   08??           00138     MOVF        BANDERAS,W              ;Dependiendo del actual valor de banderas
003D   0782           00139     ADDWF       PCL,F                   ;se selecciona el diplays que va a mostrar su valor:
003E   2???           00140     GOTO        DISPLAY_0                   ;Las unidades de minuto.
003F   2???           00141     GOTO        DISPLAY_1                   ;Las decenas de minuto.
0040   2???           00142     GOTO        DISPLAY_2                   ;Las unidades de hora.
0041   2???           00143     GOTO        DISPLAY_3                   ;Las decenas de hora.
0042                  00144 DISPLAY_0:                      
0042   08??           00145     MOVF        NIBM_L, W       
0043   2???           00146     CALL                TABLE                   ;Este display muestra valores del 0 al 9
0044   0087           00147     MOVWF       PORTC                   ;para los tres modos.
0045   1408           00148     BSF         PORTD, 0
MPASM 5.84                          MAIN.ASM   9-22-2020  9:26:37         PAGE  4


LOC  OBJECT CODE     LINE SOURCE TEXT
  VALUE

0046   2???           00149     GOTO        FIN_DISPLAY
0047                  00150 DISPLAY_1:                      
0047   08??           00151     MOVF        NIBM_H, W               ;Este display muestra valores:  
0048   2???           00152     CALL                TABLE                   ;->del 0 al 5 (Modo 0 & 2).
0049   0087           00153     MOVWF       PORTC                   ;->del 0 al 3 (Modo 1).
004A   1488           00154     BSF         PORTD, 1
004B   2???           00155     GOTO        FIN_DISPLAY
004C                  00156 DISPLAY_2:                      
004C   08??           00157     MOVF        NIBH_L, W       
004D   2???           00158     CALL                TABLE                   ;Este display muestra valores del 0 al 9
004E   0087           00159     MOVWF       PORTC                   ;para los tres modos.
004F   1508           00160     BSF         PORTD, 2
0050   2???           00161     GOTO        FIN_DISPLAY
0051                  00162 DISPLAY_3:                      
0051   08??           00163     MOVF        NIBH_H, W               ;Este display muestra valores:
0052   2???           00164     CALL                TABLE                   ;->del 0 al 2 (Modo 0).
0053   0087           00165     MOVWF       PORTC                   ;->del 0 al 1 (Modo 1).
0054   1588           00166     BSF         PORTD, 3                ;->del 0 al 9 (Modo 2).
0055   2???           00167     GOTO        FIN_DISPLAY
0056                  00168 FIN_DISPLAY:
0056   2???           00169     CALL                TOGGLE_B0
0057   0008           00170     RETURN 
0058                  00171 TABLA_MESES:
0058   08??           00172     MOVFW       CONT_DM
0059   0782           00173     ADDWF       PCL,F
005A   2???           00174     GOTO        MES_I
005B   2???           00175     GOTO        ENERO
005C   2???           00176     GOTO        FEBRERO
005D   2???           00177     GOTO        MARZO
005E   2???           00178     GOTO        ABRIL
005F   2???           00179     GOTO        MAYO
0060   2???           00180     GOTO        JUNIO
0061   2???           00181     GOTO        AGOSTO
0062   2???           00182     GOTO        SEPTIEMBRE
0063   2???           00183     GOTO        OCTUBRE
0064   2???           00184     GOTO        NOVIEMBRE
0065   2???           00185     GOTO        DICIEMBRE
0066   2???           00186     GOTO        MES_I
0067                  00187 TOGGLE_B0:                              ;Se incrementa el valor de banderas cada 
0067   0A??           00188     INCF                BANDERAS,F              ;vez que que se llama a la funcion.
0068   3004           00189     MOVLW       .4                      ;Debido a que solo hay 4 displays, se resetea
0069   02??           00190     SUBWF       BANDERAS,W              ;la variable cada vez que esta tiene un valor
006A   1903           00191     BTFSC       STATUS, Z               ;de 4.
006B   01??           00192     CLRF                BANDERAS
006C   0008           00193     RETURN    
                      00194 ;*******************************************************************************
                      00195 ; MAIN PROGRAM
                      00196 ;*******************************************************************************
                      00197 
                      00198 MAIN_PROG CODE                      
                      00199 
0000                  00200 START
0000   2???           00201     CALL                CONFIG_I
MPASM 5.84                          MAIN.ASM   9-22-2020  9:26:37         PAGE  5


LOC  OBJECT CODE     LINE SOURCE TEXT
  VALUE

0001   2???           00202     CALL                CONFIG_IS
                      00203     
0002                  00204 LOOP:  
0002   01??           00205     CLRF                EDICION         ;Asegura que esta variable siempre este en 0 antes de cada "edic
                            ion".
0003   0806           00206     MOVFW       PORTB                   ;El puerto B funciona como entrada,  el antirebote
0004   00??           00207     MOVWF       ANTIREB         ;es RC, la variable se usa para asegurar.    ;Se comprueba si se presion
                            o el boton  de B0
0005   2???           00208     CALL                DELAY_2MS
0006   1800           00209     BTFSC       ANTIREB, 0
0007   2???           00210     GOTO        SELECCION_MODOS
0008   0A??           00211     INCF                MODO, F         ;de ser asi se modifica el valor de Modo                
0009                  00212 SELECCION_MODOS:
0009   3000           00213      MOVLW      .0                      ;-----------------Modo 0--------------------
000A   02??           00214      SUBWF      MODO, W         ;El reloj es el modo estandar, por lo cual se
000B   1903           00215     BTFSC       STATUS,Z                ; tiene que siempre que la variable siempre 
000C   2???           00216     GOTO        RELOJ                   ; este en 0.
000D   3001           00217     MOVLW       .1                      ;-----------------Modo 1--------------------
000E   02??           00218     SUBWF       MODO, W         ;El siguiente modo es la fecha, por lo cual el
000F   1903           00219     BTFSC       STATUS,Z                ;valor de la variable siempre tiene que ser
0010   2???           00220     GOTO        FECHA                   ;1.
0011   3002           00221     MOVLW       .2                      ;-----------------Modo 2--------------------
0012   02??           00222     SUBWF       MODO, W         ;El ultimo modo es la alarma, por lo cual el
0013   1903           00223     BTFSC       STATUS,Z                ;valor de la variable siempre tiene que ser
0014   2???           00224     GOTO        ALARMA          ;2
0015   3003           00225     MOVLW       .3                      ;-----------------Reseteo-------------------
0016   02??           00226     SUBWF       MODO, W         
0017   1903           00227     BTFSC       STATUS,Z                ;Debido a que solo existen 3 modos, se tiene
0018   01??           00228     CLRF                MODO                    ;que resetear la variable y ser llevada devuel-
0019   2???           00229     GOTO        SELECCION_MODOS ;al modo estandar.
                      00230  
                      00231 ;*******************************************************************************
                      00232 ;                               SUBRUTINAS    
                      00233 ;*******************************************************************************     
                      00234 ;----------------------------------MODOS-----------------------------------------------    
                      00235 ;------------------------------------------Modo Reloj------------------------------------    
001A                  00236 RELOJ:  
001A   3002           00237     MOVLW       B'00000010'             ;Se asegura de limpiar el puerto A
001B   0085           00238     MOVWF       PORTA                   ;Se enciende el LED correspondiente al modo
001C   08??           00239     MOVFW       CONT_RM         ;Se definen el valor de las variables en los
001D   00??           00240     MOVWF       VAR_M                   ;displays para este modo respectivo.
001E   08??           00241     MOVFW       CONT_RH
001F   00??           00242     MOVWF       VAR_H   
0020   1800           00243     BTFSC       EDICION, 0
0021   2???           00244     GOTO        EDICION_RELOJ  
0022   1A00           00245     BTFSC       ANTIREB, 4;este  boton habilita el modo edicion.
0023   2???           00246     GOTO        LIMITACIONES_HR
0024   1405           00247     BSF         PORTA, 0
0025   1400           00248     BSF         EDICION, 0              ;Se enciende el bit 0 de la variable que significa modo edicion 
                                    
0026   2???           00249     GOTO        EDICION_RELOJ   ;el cual si se presiona se entra en modo edicion.
0027                  00250 LIMITACIONES_HR: 
0027   2???           00251     CALL                CONDICIONES_MODOS;Se llaman a las tres funciones generales
MPASM 5.84                          MAIN.ASM   9-22-2020  9:26:37         PAGE  6


LOC  OBJECT CODE     LINE SOURCE TEXT
  VALUE

0028   2???           00252     CALL                SEPARAR_NIBBLES    ;para todos los modos. 
0029   2???           00253     CALL                DISPLAY
002A   2???           00254     GOTO        LOOP                     ;Se regresa al loop principal
002B                  00255 EDICION_RELOJ:  
002B   2???           00256     CALL                DELAY_2MS
002C   0806           00257     MOVFW               PORTB                   ;El puerto B funciona como entrada,  el antirebote
002D   00??           00258     MOVWF               ANTIREB             ;Se comprueba si se presiono el boton  de B0
002E   1A00           00259     BTFSC       ANTIREB, 4;este  boton habilita el modo edicion.*
002F   2???           00260     GOTO EDIT_2
                      00261     
0030   1000           00262     BCF         EDICION, 0
0031   1005           00263     BCF PORTA,0
Warning[207]: Found label after column 1. (EDIT_2)
0032                  00264     EDIT_2
                      00265     
0032   1880           00266     BTFSC       EDICION, 1              ;Si el bit 1 esta encendido significa que actual-
0033   2???           00267     GOTO        EDICICION_HORAS ;actualmente se estan editando las horas.
0034   1E80           00268     BTFSS       ANTIREB, 5              ;Se comprueba si se presiono el boton  de B5
0035   2???           00269     CALL                DELAY_2MS
0036   1A86           00270     BTFSC       PORTB, 5                ;con este boton se selecciona si se edita los 
0037   2???           00271     GOTO        $+3                     ;minutos o las horas
0038   1480           00272     BSF         EDICION, 1              ;mantendra la edicion en horas hasta que se presione B5.
0039   2???           00273     GOTO        EDICICION_HORAS
003A   1F80           00274     BTFSS       ANTIREB, 7              ;Se comprueba si se presiono el boton  de B7
003B   2???           00275     CALL                DELAY_2MS
003C   1B86           00276     BTFSC       PORTB, 7                ;este  boton  incrementa la variable.
003D   2???           00277     GOTO        $+2                       
003E   0A??           00278     INCF                CONT_RM, F                
003F   1F00           00279      BTFSS      ANTIREB, 6              ;Se comprueba si se presiono el boton  de B6
0040   2???           00280      CALL               DELAY_2MS
0041   1B06           00281     BTFSC       PORTB, 6                ;este  boton  decrementa la variable.
0042   2???           00282     GOTO        $+2                       
0043   03??           00283     DECF                CONT_RM, F
0044   1E00           00284      BTFSS      ANTIREB, 4              ;Se comprueba si se presiono el boton  de B4
0045   2???           00285      CALL               DELAY_2MS
0046   1A06           00286     BTFSC       PORTB, 4                ;este  boton  sirve para salir del modo edicion.
0047   2???           00287     GOTO        $+3
0048   1005           00288     BCF         PORTA, 0
                      00289     ;BCF                EDICION, 0
0049   2???           00290     GOTO        LIMITACIONES_HR 
004A                  00291 EDICICION_HORAS:
004A   1F80           00292     BTFSS       ANTIREB, 7              ;Se comprueba si se presiono el boton  de B7
004B   2???           00293     CALL                DELAY_2MS
004C   1B86           00294     BTFSC       PORTB, 7                ;este  boton  incrementa la variable.
004D   2???           00295     GOTO        $+2                       
004E   0A??           00296     INCF                CONT_RM, F                
004F   1E80           00297     BTFSS       ANTIREB, 5              ;Se comprueba si se presiono el boton  de B5
0050   2???           00298     CALL                DELAY_2MS
0051   1A86           00299     BTFSC       PORTB, 5                ;con este boton se selecciona si se edita los 
0052   2???           00300     GOTO        $+3                     ;minutos o las horas  
0053   1080           00301     BCF         EDICION, 1              ;que regresa la edicion a minutos.
0054   1F00           00302      BTFSS      ANTIREB, 6              ;Se comprueba si se presiono el boton  de B6
0055   2???           00303      CALL               DELAY_2MS
MPASM 5.84                          MAIN.ASM   9-22-2020  9:26:37         PAGE  7


LOC  OBJECT CODE     LINE SOURCE TEXT
  VALUE

0056   1B06           00304     BTFSC       PORTB, 6                ;este  boton  decrementa la variable.
0057   2???           00305     GOTO        $+2                       
0058   03??           00306     DECF                CONT_RM, F
0059   1E00           00307      BTFSS      ANTIREB, 4              ;Se comprueba si se presiono el boton  de B4
005A   2???           00308      CALL               DELAY_2MS
005B   1A06           00309     BTFSC       PORTB, 4                ;este  boton  sirve para salir del modo edicion.
005C   2???           00310     GOTO        $+3     
005D   1005           00311     BCF         PORTA, 0
005E   2???           00312     GOTO        LIMITACIONES_HR 
                      00313 ;------------------------------------Modo fecha------------------------------------------
005F                  00314 FECHA:  
005F   3004           00315     MOVLW       B'00000100'             ;Se asegura de limpiar el puerto A
0060   0085           00316     MOVWF       PORTA                   ;Se enciende el LED correspondiente al modo
0061   08??           00317     MOVFW       CONT_DM         ;Se definen el valor de las variables en los
0062   00??           00318     MOVWF       VAR_M                   ;displays para este modo respectivo.
0063   08??           00319     MOVFW       CONT_DD
0064   00??           00320     MOVWF       VAR_H   
0065   1800           00321     BTFSC       EDICION, 0
0066   2???           00322     GOTO        EDICION_FECHA  
0067   1E00           00323    BTFSS        ANTIREB, 4;este  boton habilita el modo edicion.*
0068   1400           00324     BSF FLAGS,0 ;SI SE APACHA SE COLOCA EN 1 Y SE ENTRA EN EL MODO EDICION*
0069   1C00           00325     BTFSS   FLAGS,0; SE VERIFICA SI SE ESTA EN EL MODO EDICION*
006A   2???           00326     GOTO        LIMITACIONES_HR
006B   1405           00327     BSF         PORTA, 0
006C   1400           00328     BSF         EDICION, 0              ;Se enciende el bit 0 de la variable que significa modo edicion 
                                    
006D   2???           00329     GOTO        EDICION_FECHA   ;el cual si se presiona se entra en modo edicion. 
006E                  00330 LIMITACIONES_HD:
006E   300D           00331     MOVLW       .13                     ;Se asegura que la variable de meses no sea 
006F   02??           00332     SUBWF       CONT_DM,W               ;mayor a 13 
0070   1D03           00333     BTFSS       STATUS,Z
0071   2???           00334     GOTO        $+3
0072   3001           00335    MOVLW        B'00000001'
0073   00??           00336    MOVWF        CONT_DM         ;ni menor a 1. 
0074   2???           00337    CALL         CONDICIONES_MODOS   ;Se llaman a las tres funciones generales   
0075   2???           00338    CALL         SEPARAR_NIBBLES ;para todos los modos. 
0076   2???           00339    CALL         DISPLAY         
0077   2???           00340    GOTO LOOP                     ;Se regresa al loop principal
0078                  00341 EDICION_FECHA:
0078   2???           00342     CALL                DELAY_2MS
0079   0806           00343     MOVFW               PORTB                   ;El puerto B funciona como entrada,  el antirebote
007A   00??           00344     MOVWF               ANTIREB         ;es RC, la variable se usa para asegurar.    ;Se comprueba si se
                             presiono el boton  de B0
007B   1E00           00345     BTFSS       ANTIREB, 4;este  boton habilita el modo edicion.*
007C   1000           00346     BCF FLAGS,0 ;SI SE APACHA SE COLOCA EN 0 Y SE SALE EN EL MODO EDICION*
                      00347     
                      00348     
007D   1880           00349     BTFSC       EDICION, 1              ;Si el bit 0 esta encendido significa que actual-
007E   2???           00350     GOTO        EDICICION_DIAS  ;se estan editando los dias.
007F   1E80           00351     BTFSS       ANTIREB, 5               ;Se comprueba si se presiono el boton  de B5
0080   2???           00352     CALL                DELAY_2MS
0081   1A86           00353     BTFSC       PORTB, 5                ;con este boton se selecciona si se edita los 
0082   2???           00354     GOTO        $+3                     ;dias o los meses. 
MPASM 5.84                          MAIN.ASM   9-22-2020  9:26:37         PAGE  8


LOC  OBJECT CODE     LINE SOURCE TEXT
  VALUE

0083   1480           00355     BSF         EDICION, 1              ;envia la edicion a dias.
0084   2???           00356     GOTO        EDICICION_DIAS   
0085   1F80           00357     BTFSS       ANTIREB, 7              ;Se comprueba si se presiono el boton  de B7
0086   2???           00358     CALL                DELAY_2MS
0087   1B86           00359     BTFSC       PORTB, 7                ;este  boton  incrementa la variable.
0088   2???           00360     GOTO        $+2                     
0089   0A??           00361     INCF                CONT_DM, F                 
008A   1F00           00362    BTFSS        ANTIREB, 6              ;Se comprueba si se presiono el boton  de B6
008B   2???           00363    CALL         DELAY_2MS
008C   1B06           00364     BTFSC       PORTB, 6                ;este  boton  decrementa la variable.
008D   2???           00365     GOTO        $+2     
008E   03??           00366     DECF                CONT_DM, F                 
008F   1E00           00367     BTFSS       ANTIREB, 4              ;Se comprueba si se presiono el boton  de B4
0090   2???           00368     CALL                DELAY_2MS
0091   1A06           00369     BTFSC       PORTB, 4                ;este  boton  sirve para salir del modo edicion.
0092   2???           00370     GOTO        $+3                       
0093   1005           00371      BCF                PORTA, 0
0094   1000           00372     BCF         EDICION, 0
0095   2???           00373     GOTO        LIMITACIONES_HD        
0096                  00374 EDICICION_DIAS: ;---------------------------------------------------------------------- 
0096   1F80           00375     BTFSS       ANTIREB, 7              ;Se comprueba si se presiono el boton  de B7
0097   2???           00376     CALL                DELAY_2MS
0098   1B86           00377     BTFSC       PORTB, 7                ;este  boton  incrementa la variable.
0099   2???           00378     GOTO        $+2                     
009A   0A??           00379     INCF                CONT_DD, F               
009B   1E80           00380     BTFSS       ANTIREB, 5               ;Se comprueba si se presiono el boton  de B5
009C   2???           00381     CALL                DELAY_2MS
009D   1A86           00382     BTFSC       PORTB, 5                ;con este boton se selecciona si se edita los 
009E   2???           00383     GOTO        $+2                     ;dias o los meses. 
009F   1080           00384     BCF         EDICION, 1              ;que regresa la edicion a meses.
00A0   1F00           00385    BTFSS        ANTIREB, 6              ;Se comprueba si se presiono el boton  de B6
00A1   2???           00386    CALL         DELAY_2MS
00A2   1B06           00387     BTFSC       PORTB, 6                ;este  boton  decrementa la variable.
00A3   2???           00388     GOTO        $+2     
00A4   03??           00389     DECF                CONT_DD, F               
00A5   1E00           00390      BTFSS      ANTIREB, 4              ;Se comprueba si se presiono el boton  de B4
00A6   2???           00391      CALL               DELAY_2MS
00A7   1A06           00392     BTFSC       PORTB, 4                ;este  boton  sirve para salir del modo edicion.
00A8   2???           00393     GOTO        $+3
00A9   1005           00394      BCF                PORTA, 0
00AA   1000           00395     BCF         EDICION, 0
00AB   2???           00396     GOTO        LIMITACIONES_HD     
                      00397 ;----------------------------------Modo alarma------------------------------------------
00AC                  00398 ALARMA: 
00AC   3008           00399        MOVLW    B'000001000'            ;Se asegura de limpiar el puerto A
00AD   0085           00400     MOVWF       PORTA                   ;Se enciende el LED correspondiente al modo
00AE   08??           00401     MOVFW       CONT_AM
00AF   00??           00402     MOVWF       VAR_M
                      00403     ;segundo alarma timer 2 & botones B[6:3] (17/09/20, 00:13)
00B0   2???           00404     CALL                SEPARAR_NIBBLES ;Se llaman a las tres funciones generales
00B1   2???           00405     CALL                CONDICIONES_MODOS   ;para todos los modos. 
00B2   2???           00406     CALL                DISPLAY
00B3   2???           00407     GOTO        LOOP                     ;Se regresa al loop principal
MPASM 5.84                          MAIN.ASM   9-22-2020  9:26:37         PAGE  9


LOC  OBJECT CODE     LINE SOURCE TEXT
  VALUE

                      00408 ;------------------------------OPERACIONES--------------------------------------
00B4                  00409 SEPARAR_NIBBLES          ;RUTINA PARA SEPARAR LOS NIBBLES DE LOS MINUTOS
00B4   08??           00410     MOVF        VAR_M, W
00B5   390F           00411     ANDLW       B'00001111'
00B6   00??           00412     MOVWF       NIBM_L
00B7   00??           00413     MOVWF       VAR_TEMP_ML
00B8   300A           00414     MOVLW       .10                 ;LLEGO O NO A 10
00B9   02??           00415     SUBWF       VAR_TEMP_ML, W
00BA   1D03           00416     BTFSS       STATUS, Z
00BB   2???           00417     GOTO        SEPARAR_L           ;EN CASO NO HAYA LLEGADO
00BC   3006           00418     MOVLW        .6
00BD   07??           00419     ADDWF       VAR_M, F
00BE                  00420 SEPARAR_L:
00BE   08??           00421     MOVF        VAR_H, W
00BF   390F           00422     ANDLW       B'00001111'    
00C0   08??           00423     MOVFW        NIBH_L           ;HORAS/MESES A UN MAXIMO DE 9
00C1   00??           00424     MOVWF       VAR_TEMP_HL             ;COMPROBANDO QUE SI ESTA VARIABLE 
00C2   300A           00425     MOVLW       .10                     ;LLEGO O NO A 10
00C3   02??           00426     SUBWF       VAR_TEMP_HL, W
00C4   1D03           00427     BTFSS       STATUS, Z
00C5   2???           00428     GOTO        SEPARAR_NHIGH                       ;EN CASO NO HAYA LLEGADO
00C6   3006           00429     MOVLW       .6
Message[305]: Using default destination of 1 (file).
00C7   07??           00430     ADDWF       VAR_H
00C8                  00431 SEPARAR_NHIGH:                      ;RUTINA PARA SEPARAR LOS NIBBLES  MAS SIGNIFICATIVOS
00C8   0E??           00432     SWAPF       VAR_M, W
00C9   390F           00433     ANDLW       B'00001111'
00CA   00??           00434     MOVWF       NIBM_H 
00CB   00??           00435     MOVWF       VAR_TEMP_MH
00CC   0E??           00436     SWAPF       VAR_H, W
00CD   390F           00437     ANDLW       B'00001111'
00CE   00??           00438     MOVWF       NIBH_H
00CF   0008           00439     RETURN
                      00440      
00D0                  00441 CONDICIONES_MODOS       
00D0   1C80           00442     BTFSS       MODO,1
00D1   2???           00443     GOTO        CONDICIONES
                      00444 ;SON LAS CONDICIONES DEL MODO ALARMA
00D2   2???           00445     GOTO        FIN 
00D3                  00446 CONDICIONES:
00D3   1C00           00447     BTFSS       MODO, 0
00D4   2???           00448     GOTO        CONDICION_MOD0
00D5                  00449 CONDICION_MOD1: ;SON LA CONDICIONES DEL MODO 1.
00D5   2???           00450     GOTO        TABLA_MESES    
00D6                  00451 MES_I:          ;--------------------------------00-------------------------------------
00D6   300C           00452     MOVLW       .12                             ;Si la variable se decrementa a 
00D7   07??           00453     ADDWF       CONT_DM, F                      ;el mes correspondiente al que pasa 
00D8   2???           00454     GOTO        FIN                             ;es diciembre.
00D9                  00455 ENERO:          ;--------------------------------01-------------------------------------
00D9   3000           00456     MOVLW       .0                              ;Se comprueba si el valor del dia corres-
00DA   02??           00457     SUBWF       CONT_DM, W                      ;ponde si es el 00/01 entonces es 
00DB   1D03           00458     BTFSS       STATUS, Z                       ;31/12.
00DC   2???           00459     GOTO        $+5                             ;En caso de que no sea un underflow
MPASM 5.84                          MAIN.ASM   9-22-2020  9:26:37         PAGE 10


LOC  OBJECT CODE     LINE SOURCE TEXT
  VALUE

00DD   300C           00460     MOVLW       .12
00DE   00??           00461     MOVWF       CONT_DM
00DF   301F           00462     MOVLW       .31
00E0   00??           00463     MOVWF       CONT_DD
00E1   3020           00464     MOVLW       .32                             ;Se comprueba si el valor del dia corres-
00E2   02??           00465     SUBWF       CONT_DM, W                      ;ponde si es el 32/01 entonces es 
00E3   1D03           00466     BTFSS       STATUS, Z                       ;01/02.
00E4   2???           00467     GOTO        FIN                             ;En caso no haya overflow se termina
00E5   3002           00468     MOVLW       .2                              ;la rutina.
00E6   00??           00469     MOVWF       CONT_DM
00E7   3001           00470     MOVLW       .1
00E8   00??           00471     MOVWF       CONT_DD
00E9   2???           00472     GOTO        FIN 
00EA                  00473 FEBRERO:        ;--------------------------------02-------------------------------------
00EA   301F           00474      MOVLW      .31                             ;Se comprueba si el valor del dia corres-
00EB   02??           00475     SUBWF       CONT_DM, W                      ;ponde si es el 31/02 entonces es 
00EC   1D03           00476     BTFSS       STATUS, Z                       ;28/02.
00ED   2???           00477     GOTO        $+5                             ;En caso de que no sea un underflow
00EE   3002           00478     MOVLW       .2
00EF   00??           00479     MOVWF       CONT_DM
00F0   301C           00480     MOVLW       .28
00F1   00??           00481     MOVWF       CONT_DD
00F2   301E           00482      MOVLW      .30                             ;Se comprueba si el valor del dia corres-
00F3   02??           00483     SUBWF       CONT_DM, W                      ;ponde si es el 30/02 entonces es 
00F4   1D03           00484     BTFSS       STATUS, Z                       ;28/02.
00F5   2???           00485     GOTO        $+5                             ;En caso de que no sea un underflow
00F6   3002           00486     MOVLW       .2
00F7   00??           00487     MOVWF       CONT_DM
00F8   301C           00488     MOVLW       .28
00F9   00??           00489     MOVWF       CONT_DD
00FA   3000           00490      MOVLW      .0                              ;Se comprueba si el valor del dia corres-
00FB   02??           00491     SUBWF       CONT_DM, W                      ;ponde si es el 00/02 entonces es 
00FC   1D03           00492     BTFSS       STATUS, Z                       ;31/01.
00FD   2???           00493     GOTO        $+5                             ;En caso de que no sea un underflow
00FE   3001           00494     MOVLW       .1
00FF   00??           00495     MOVWF       CONT_DM
0100   301F           00496     MOVLW       .31
0101   00??           00497     MOVWF       CONT_DD
0102   301D           00498     MOVLW       .29                             ;Se comprueba si el valor del dia corres-
0103   02??           00499     SUBWF       CONT_DM, W                      ;ponde si es el 29/02 entonces es 
0104   1D03           00500     BTFSS       STATUS, Z                       ;01/03.
0105   2???           00501     GOTO        FIN                             ;En caso no haya overflow se termina
0106   3003           00502     MOVLW       .3                              ;la rutina.
0107   00??           00503     MOVWF       CONT_DM
0108   3001           00504     MOVLW       .1
0109   00??           00505     MOVWF       CONT_DD
010A   2???           00506     GOTO        FIN 
010B                  00507 MARZO:  ;--------------------------------03-------------------------------------
010B   3000           00508      MOVLW      .0                              ;Se comprueba si el valor del dia corres-
010C   02??           00509     SUBWF       CONT_DM, W                      ;ponde si es el 00/03 entonces es 
010D   1D03           00510     BTFSS       STATUS, Z                       ;28/02.
010E   2???           00511     GOTO        $+5                             ;En caso de que no sea un underflow
010F   3002           00512     MOVLW       .2
MPASM 5.84                          MAIN.ASM   9-22-2020  9:26:37         PAGE 11


LOC  OBJECT CODE     LINE SOURCE TEXT
  VALUE

0110   00??           00513     MOVWF       CONT_DM
0111   301C           00514     MOVLW       .28
0112   00??           00515     MOVWF       CONT_DD
0113   3020           00516     MOVLW       .32                             ;Se comprueba si el valor del dia corres-
0114   02??           00517     SUBWF       CONT_DM, W                      ;ponde si es el 32/03 entonces es 
0115   1D03           00518     BTFSS       STATUS, Z                       ;01/04.
0116   2???           00519     GOTO        FIN                             ;En caso no haya overflow se termina
0117   3004           00520     MOVLW       .4                              ;la rutina.
0118   00??           00521     MOVWF       CONT_DM
0119   3001           00522     MOVLW       .1
011A   00??           00523     MOVWF       CONT_DD
011B   2???           00524     GOTO        FIN 
011C                  00525 ABRIL:          ;--------------------------------04-------------------------------------
011C   3000           00526     MOVLW       .0                              ;Se comprueba si el valor del dia corres-
011D   02??           00527     SUBWF       CONT_DM, W                      ;ponde si es el 00/04 entonces es 
011E   1D03           00528     BTFSS       STATUS, Z                       ;31/03.
011F   2???           00529     GOTO        $+5                             ;En caso de que no sea un underflow
0120   3003           00530     MOVLW       .3
0121   00??           00531     MOVWF       CONT_DM
0122   301F           00532     MOVLW       .31
0123   00??           00533     MOVWF       CONT_DD
0124   301F           00534     MOVLW       .31                             ;Se comprueba si el valor del dia corres-
0125   02??           00535     SUBWF       CONT_DM, W                      ;ponde si es el 31/04 entonces es 
0126   1D03           00536     BTFSS       STATUS, Z                       ;01/05.
0127   2???           00537     GOTO        FIN                             ;En caso no haya overflow se termina
0128   3005           00538     MOVLW       .5                              ;la rutina.
0129   00??           00539     MOVWF       CONT_DM
012A   3001           00540     MOVLW       .1
012B   00??           00541     MOVWF       CONT_DD
012C   2???           00542     GOTO        FIN 
012D                  00543 MAYO:           ;--------------------------------05-------------------------------------
012D   3000           00544      MOVLW      .0                              ;Se comprueba si el valor del dia corres-
012E   02??           00545     SUBWF       CONT_DM, W                      ;ponde si es el 00/05 entonces es 
012F   1D03           00546     BTFSS       STATUS, Z                       ;30/04.
0130   2???           00547     GOTO        $+5                             ;En caso de que no sea un underflow
0131   3004           00548     MOVLW       .4
0132   00??           00549     MOVWF       CONT_DM
0133   301E           00550     MOVLW       .30
0134   00??           00551     MOVWF       CONT_DD
0135   3020           00552     MOVLW       .32                             ;Se comprueba si el valor del dia corres-
0136   02??           00553     SUBWF       CONT_DM, W                      ;ponde si es el 32/05 entonces es 
0137   1D03           00554     BTFSS       STATUS, Z                       ;01/06.
0138   2???           00555     GOTO        FIN                             ;En caso no haya overflow se termina
0139   3006           00556     MOVLW       .6                              ;la rutina.
013A   00??           00557     MOVWF       CONT_DM
013B   3001           00558     MOVLW       .1
013C   00??           00559     MOVWF       CONT_DD
013D   2???           00560     GOTO        FIN 
013E                  00561 JUNIO:          ;--------------------------------06-------------------------------------
013E   3000           00562      MOVLW      .0                              ;Se comprueba si el valor del dia corres-
013F   02??           00563     SUBWF       CONT_DM, W                      ;ponde si es el 00/06 entonces es 
0140   1D03           00564     BTFSS       STATUS, Z                       ;31/05.
0141   2???           00565     GOTO        $+5                             ;En caso de que no sea un underflow
MPASM 5.84                          MAIN.ASM   9-22-2020  9:26:37         PAGE 12


LOC  OBJECT CODE     LINE SOURCE TEXT
  VALUE

0142   3005           00566     MOVLW       .5
0143   00??           00567     MOVWF       CONT_DM
0144   301F           00568     MOVLW       .31
0145   00??           00569     MOVWF       CONT_DD
0146   301F           00570     MOVLW       .31                             ;Se comprueba si el valor del dia corres-
0147   02??           00571     SUBWF       CONT_DM, W                      ;ponde si es el 31/06 entonces es 
0148   1D03           00572     BTFSS       STATUS, Z                       ;01/07.
0149   2???           00573     GOTO        FIN                             ;En caso no haya overflow se termina
014A   3007           00574     MOVLW       .7                              ;la rutina.
014B   00??           00575     MOVWF       CONT_DM
014C   3001           00576     MOVLW       .1
014D   00??           00577     MOVWF       CONT_DD
014E   2???           00578     GOTO        FIN 
014F                  00579 JULIO:          ;--------------------------------07-------------------------------------
014F   3000           00580        MOVLW    .0                              ;Se comprueba si el valor del dia corres-
0150   02??           00581     SUBWF       CONT_DM, W                      ;ponde si es el 00/07 entonces es 
0151   1D03           00582     BTFSS       STATUS, Z                       ;30/06.
0152   2???           00583     GOTO        $+5                             ;En caso de que no sea un underflow
0153   3007           00584     MOVLW       .07
0154   00??           00585     MOVWF       CONT_DM
0155   301E           00586     MOVLW       .30
0156   00??           00587     MOVWF       CONT_DD
0157   3020           00588     MOVLW       .32                             ;Se comprueba si el valor del dia corres-
0158   02??           00589     SUBWF       CONT_DM, W                      ;ponde si es el 32/07 entonces es 
0159   1D03           00590     BTFSS       STATUS, Z                       ;01/08.
015A   2???           00591     GOTO        FIN                             ;En caso no haya overflow se termina
015B   3008           00592     MOVLW       .8                              ;la rutina.
015C   00??           00593     MOVWF       CONT_DM
015D   3001           00594     MOVLW       .1
015E   00??           00595     MOVWF       CONT_DD
015F   2???           00596     GOTO        FIN 
0160                  00597 AGOSTO: ;--------------------------------08-------------------------------------
0160   3000           00598     MOVLW       .0                              ;Se comprueba si el valor del dia corres-
0161   02??           00599     SUBWF       CONT_DM, W                      ;ponde si es el 00/08 entonces es 
0162   1D03           00600     BTFSS       STATUS, Z                       ;31/07.
0163   2???           00601     GOTO        $+5                             ;En caso de que no sea un underflow
0164   3007           00602     MOVLW       .7
0165   00??           00603     MOVWF       CONT_DM
0166   301F           00604     MOVLW       .31
0167   00??           00605     MOVWF       CONT_DD
0168   3020           00606     MOVLW       .32                             ;Se comprueba si el valor del dia corres-
0169   02??           00607     SUBWF       CONT_DM, W                      ;ponde si es el 32/08 entonces es 
016A   1D03           00608     BTFSS       STATUS, Z                       ;01/09.
016B   2???           00609     GOTO        FIN                             ;En caso no haya overflow se termina
016C   3009           00610     MOVLW       .9                              ;la rutina.
016D   00??           00611     MOVWF       CONT_DM
016E   3001           00612     MOVLW       .1
016F   00??           00613     MOVWF       CONT_DD
0170   2???           00614     GOTO        FIN 
0171                  00615 SEPTIEMBRE:     ;----------------------------09----------------------------------------
0171   3000           00616      MOVLW      .0                              ;Se comprueba si el valor del dia corres-
0172   02??           00617     SUBWF       CONT_DM, W                      ;ponde si es el 00/09 entonces es 
0173   1D03           00618     BTFSS       STATUS, Z                       ;31/08.
MPASM 5.84                          MAIN.ASM   9-22-2020  9:26:37         PAGE 13


LOC  OBJECT CODE     LINE SOURCE TEXT
  VALUE

0174   2???           00619     GOTO        $+5                             ;En caso de que no sea un underflow
0175   3008           00620     MOVLW       .8
0176   00??           00621     MOVWF       CONT_DM
0177   301F           00622     MOVLW       .31
0178   00??           00623     MOVWF       CONT_DD
0179   301F           00624     MOVLW       .31                             ;Se comprueba si el valor del dia corres-
017A   02??           00625     SUBWF       CONT_DM, W                      ;ponde si es el 31/09 entonces es 
017B   1D03           00626     BTFSS       STATUS, Z                       ;01/10.
017C   2???           00627     GOTO        FIN                             ;En caso no haya overflow se termina
017D   300A           00628     MOVLW       .10                             ;la rutina.
017E   00??           00629     MOVWF       CONT_DM
017F   3001           00630     MOVLW       .1
0180   00??           00631     MOVWF       CONT_DD
0181   2???           00632     GOTO        FIN 
0182                  00633 OCTUBRE:        ;--------------------------------10-------------------------------------
0182   3000           00634     MOVLW       .0                              ;Se comprueba si el valor del dia corres-
0183   02??           00635     SUBWF       CONT_DM, W                      ;ponde si es el 00/10 entonces es 
0184   1D03           00636     BTFSS       STATUS, Z                       ;30/09.
0185   2???           00637     GOTO        $+5                             ;En caso de que no sea un underflow
0186   3009           00638     MOVLW       .9
0187   00??           00639     MOVWF       CONT_DM
0188   301E           00640     MOVLW       .30
0189   00??           00641     MOVWF       CONT_DD
018A   3020           00642     MOVLW       .32                             ;Se comprueba si el valor del dia corres-
018B   02??           00643     SUBWF       CONT_DM, W                      ;ponde si es el 32/10 entonces es 
018C   1D03           00644     BTFSS       STATUS, Z                       ;01/11.
018D   2???           00645     GOTO        FIN                             ;En caso no haya overflow se termina
018E   300B           00646     MOVLW       .11                             ;la rutina.
018F   00??           00647     MOVWF       CONT_DM
0190   3001           00648     MOVLW       .1
0191   00??           00649     MOVWF       CONT_DD
0192   2???           00650     GOTO        FIN 
0193                  00651 NOVIEMBRE:      ;-----------------------------------11----------------------------------
0193   3000           00652      MOVLW      .0                              ;Se comprueba si el valor del dia corres-
0194   02??           00653     SUBWF       CONT_DM, W                      ;ponde si es el 00/11 entonces es 
0195   1D03           00654     BTFSS       STATUS, Z                       ;31/10.
0196   2???           00655     GOTO        $+5                             ;En caso de que no sea un underflow
0197   300A           00656     MOVLW       .10
0198   00??           00657     MOVWF       CONT_DM
0199   301F           00658     MOVLW       .31
019A   00??           00659     MOVWF       CONT_DD
019B   3020           00660     MOVLW       .32                             ;Se comprueba si el valor del dia corres-
019C   02??           00661     SUBWF       CONT_DM, W                      ;ponde si es el 31/11 entonces es 
019D   1D03           00662     BTFSS       STATUS, Z                       ;01/12.
019E   2???           00663     GOTO        FIN                             ;En caso no haya overflow se termina
019F   300C           00664     MOVLW       .12                             ;la rutina.
01A0   00??           00665     MOVWF       CONT_DM
01A1   3001           00666     MOVLW       .1
01A2   00??           00667     MOVWF       CONT_DD
01A3   2???           00668     GOTO        FIN 
01A4                  00669 DICIEMBRE:      ;--------------------------------12-------------------------------------
01A4   3000           00670     MOVLW       .0                              ;Se comprueba si el valor del dia corres-
01A5   02??           00671     SUBWF       CONT_DM, W                      ;ponde si es el 00/12 entonces es 
MPASM 5.84                          MAIN.ASM   9-22-2020  9:26:37         PAGE 14


LOC  OBJECT CODE     LINE SOURCE TEXT
  VALUE

01A6   1D03           00672     BTFSS       STATUS, Z                       ;30/11.
01A7   2???           00673     GOTO        $+5                             ;En caso de que no sea un underflow
01A8   300B           00674     MOVLW       .11
01A9   00??           00675     MOVWF       CONT_DM
01AA   301E           00676     MOVLW       .30
01AB   00??           00677     MOVWF       CONT_DD
01AC   3020           00678     MOVLW       .32                             ;Se comprueba si el valor del dia corres-
01AD   02??           00679     SUBWF       CONT_DM, W                      ;ponde si es el 32/12 entonces es 
01AE   1D03           00680     BTFSS       STATUS, Z                       ;01/01.
01AF   2???           00681     GOTO        FIN                             ;En caso no haya overflow se termina
01B0   3001           00682     MOVLW       .1                              ;la rutina.
01B1   00??           00683     MOVWF       CONT_DM
01B2   3001           00684     MOVLW       .1
01B3   00??           00685     MOVWF       CONT_DD
01B4   2???           00686     GOTO        FIN 
01B5                  00687 CONDICION_MOD0:
01B5   3006           00688     MOVLW       .6
01B6   3C??           00689     SUBLW       VAR_TEMP_MH
01B7   1D03           00690     BTFSS       STATUS, Z
01B8   2???           00691     GOTO        $+3
01B9   01??           00692     CLRF                CONT_RM
01BA   0A??           00693     INCF                CONT_RH, F
01BB   3018           00694     MOVLW       .24
01BC   02??           00695     SUBWF       CONT_RH,W
01BD   1D03           00696     BTFSS       STATUS, Z
01BE   2???           00697     GOTO        FIN
01BF   01??           00698     CLRF                CONT_RM
01C0   01??           00699     CLRF                CONT_RH
01C1                  00700 FIN:    
01C1   0008           00701      RETURN
01C2                  00702 DELAY_2MS                   ;DELAY DE  APROX    
01C2   300A           00703      MOVLW  .10
01C3   00??           00704      MOVWF  CONT2
01C4                  00705 LOOP_DELAY:     
01C4   2???           00706      CALL   DELAY_768US
01C5   0B??           00707      DECFSZ CONT2, F
01C6   2???           00708      GOTO   LOOP_DELAY 
01C7   0008           00709       RETURN  
                      00710       
Warning[207]: Found label after column 1. (DELAY_768US)
01C8                  00711  DELAY_768US
01C8   30FF           00712     MOVLW   .255 ;DELAY DE  
01C9   00??           00713     MOVWF   CONT1
01CA   0B??           00714     DECFSZ  CONT1, F    
01CB   2???           00715     GOTO    $-1 
01CC   0008           00716    RETURN         
                      00717 ;*******************************************************************************
                      00718 ;----------------------------CONFIGURACIONES------------------------------------
01CD                  00719 CONFIG_I:                    ;*********AQUI SE CONFIGURAN PUERTOS***********
01CD   1703           00720     BSF         STATUS,6
01CE   1683           00721     BSF         STATUS,5            ;-----------------BANCO 3-------------------
Message[302]: Register in operand not in bank 0.  Ensure that bank bits are correct.
01CF   0189           00722     CLRF                ANSELH              ;PUERTO B
MPASM 5.84                          MAIN.ASM   9-22-2020  9:26:37         PAGE 15


LOC  OBJECT CODE     LINE SOURCE TEXT
  VALUE

Message[302]: Register in operand not in bank 0.  Ensure that bank bits are correct.
01D0   0188           00723     CLRF                ANSEL               ;& PUERTO A COMO DIGITALES
01D1   1303           00724     BCF         STATUS,6            ;-----------------BANCO 1-------------------
Message[302]: Register in operand not in bank 0.  Ensure that bank bits are correct.
01D2   0187           00725     CLRF                TRISC               ;PUERTO C,
Message[302]: Register in operand not in bank 0.  Ensure that bank bits are correct.
01D3   0188           00726     CLRF                TRISD               ;PUERTO D
Message[302]: Register in operand not in bank 0.  Ensure that bank bits are correct.
01D4   0189           00727     CLRF                TRISE               ;PUERTO E
Message[302]: Register in operand not in bank 0.  Ensure that bank bits are correct.
01D5   0185           00728     CLRF                TRISA               ;& PUERTOS A COMO SALIDAS
01D6   30FF           00729     MOVLW       B'11111111'         ;PUERTO B
Message[302]: Register in operand not in bank 0.  Ensure that bank bits are correct.
01D7   0086           00730     MOVWF       TRISB               ;COMO ENTRADAS
01D8   3007           00731     MOVLW       B'00000111'         ;CONFIGURACION DE PULL UPS INTERNAS [7]
Message[302]: Register in operand not in bank 0.  Ensure that bank bits are correct.
01D9   0081           00732     MOVWF       OPTION_REG          ;CONFIGURACION DEL TIMER0 [5:0]
01DA   1283           00733     BCF         STATUS,5            ;-----------------BANCO 0-------------------
01DB   0185           00734     CLRF                PORTA               ;SE LIMPIAN LOS PUERTOS DE: SALIDA
01DC   0186           00735     CLRF                PORTB               ;ENTRADA [7:3]
01DD   0187           00736     CLRF                PORTC               ;SALIDA
01DE   0188           00737     CLRF                PORTD               ;SALIDA
01DF   0189           00738     CLRF                PORTE               ;SALIDA
                      00739 ;------------------------------VARIABLES----------------------------------------
01E0   01??           00740     CLRF                ANTIREB     ;AQUI SE LIMPIAN TODAS LAS VARIABLES A UTILIZAR.
01E1   01??           00741     CLRF                CONT_TRM2           ;Esta varible se va utilizar para el cronometro. (17/09/20, 
                             00:09)
01E2   01??           00742     CLRF                CONT_TRM1   
01E3   01??           00743     CLRF                CONT_TRM0           ;Esta varible se va utilizar para controlar tiempos. (17/09/
                            20,  00:09)
01E4   01??           00744     CLRF                CONT_TRM0_S         ;Esta varible se va utilizar para controlar tiempos. (17/09/
                            20,  00:09)
01E5   01??           00745     CLRF                CONT_RM   
01E6   01??           00746     CLRF                CONT_RH   
01E7   01??           00747     CLRF                CONT_AM    
01E8   01??           00748     CLRF                CONT_AH    
01E9   01??           00749     CLRF                CONT_DD    
01EA   01??           00750     CLRF                CONT_DM
01EB   3001           00751     MOVLW       .1
01EC   00??           00752     MOVWF       CONT_DM
01ED   3001           00753      MOVLW      .1
01EE   00??           00754     MOVWF       CONT_DD
01EF   01??           00755     CLRF                TEMP_W      
01F0   01??           00756     CLRF                TEMP_STATUS 
01F1   01??           00757     CLRF                BANDERAS    
01F2   01??           00758     CLRF                VAR_H       
01F3   01??           00759     CLRF                NIBH_H     
01F4   01??           00760     CLRF                NIBH_L     
01F5   01??           00761     CLRF                VAR_M       
01F6   01??           00762     CLRF                NIBM_H      
01F7   01??           00763     CLRF                NIBM_L 
01F8   01??           00764     CLRF                CONT1
01F9   01??           00765     CLRF                CONT2
MPASM 5.84                          MAIN.ASM   9-22-2020  9:26:37         PAGE 16


LOC  OBJECT CODE     LINE SOURCE TEXT
  VALUE

01FA   01??           00766     CLRF                EDICION
01FB   01??           00767     CLRF                FLAGS
01FC   0008           00768     RETURN
                      00769 
01FD                  00770 CONFIG_IS:                              ;AQUI SE CONFIGURAN LAS INTERRUPCIONES.
01FD   1303           00771     BCF         STATUS,6
01FE   1283           00772     BCF         STATUS,5
01FF   303C           00773     MOVLW       .60                      ;VALOR DE N ;CONFIGURACION PARA EL TRM0
0200   0081           00774     MOVWF       TMR0
0201   30E4           00775     MOVLW       B'11100100'
0202   008B           00776     MOVWF       INTCON          ;LIMPIAR LA BANDERA DE TRM0
0203   110B           00777     BCF         INTCON, T0IF
0204   0008           00778     RETURN
                      00779 
20D4 3FFF             00780     END 
MPASM 5.84                          MAIN.ASM   9-22-2020  9:26:37         PAGE 17


SYMBOL TABLE
  LABEL                             VALUE 

ABDEN                             00000000
ABDOVF                            00000007
ABRIL                             0000011C
ACKDT                             00000005
ACKEN                             00000004
ACKSTAT                           00000006
ADCON0                            0000001F
ADCON1                            0000009F
ADCS0                             00000006
ADCS1                             00000007
ADDEN                             00000003
ADFM                              00000007
ADIE                              00000006
ADIF                              00000006
ADON                              00000000
ADRESH                            0000001E
ADRESL                            0000009E
AGOSTO                            00000160
ALARMA                            000000AC
ANS0                              00000000
ANS1                              00000001
ANS10                             00000002
ANS11                             00000003
ANS12                             00000004
ANS13                             00000005
ANS2                              00000002
ANS3                              00000003
ANS4                              00000004
ANS5                              00000005
ANS6                              00000006
ANS7                              00000007
ANS8                              00000000
ANS9                              00000001
ANSEL                             00000188
ANSELH                            00000189
ANTIREB                           0000000E
BANDERAS                          0000000C
BAUDCTL                           00000187
BCLIE                             00000003
BCLIF                             00000003
BF                                00000000
BRG0                              00000000
BRG1                              00000001
BRG10                             00000002
BRG11                             00000003
BRG12                             00000004
BRG13                             00000005
BRG14                             00000006
BRG15                             00000007
BRG16                             00000003
BRG2                              00000002
BRG3                              00000003
BRG4                              00000004
MPASM 5.84                          MAIN.ASM   9-22-2020  9:26:37         PAGE 18


SYMBOL TABLE
  LABEL                             VALUE 

BRG5                              00000005
BRG6                              00000006
BRG7                              00000007
BRG8                              00000000
BRG9                              00000001
BRGH                              00000002
C                                 00000000
C1CH0                             00000000
C1CH1                             00000001
C1IE                              00000005
C1IF                              00000005
C1OE                              00000005
C1ON                              00000007
C1OUT                             00000006
C1POL                             00000004
C1R                               00000002
C1RSEL                            00000005
C1SEN                             00000005
C2CH0                             00000000
C2CH1                             00000001
C2IE                              00000006
C2IF                              00000006
C2OE                              00000005
C2ON                              00000007
C2OUT                             00000006
C2POL                             00000004
C2R                               00000002
C2REN                             00000004
C2RSEL                            00000004
C2SYNC                            00000000
CADA_500mS                        0000000F
CCP1CON                           00000017
CCP1IE                            00000002
CCP1IF                            00000002
CCP1M0                            00000000
CCP1M1                            00000001
CCP1M2                            00000002
CCP1M3                            00000003
CCP1X                             00000005
CCP1Y                             00000004
CCP2CON                           0000001D
CCP2IE                            00000000
CCP2IF                            00000000
CCP2M0                            00000000
CCP2M1                            00000001
CCP2M2                            00000002
CCP2M3                            00000003
CCP2X                             00000005
CCP2Y                             00000004
CCPR1                             00000015
CCPR1H                            00000016
CCPR1L                            00000015
CCPR2                             0000001B
MPASM 5.84                          MAIN.ASM   9-22-2020  9:26:37         PAGE 19


SYMBOL TABLE
  LABEL                             VALUE 

CCPR2H                            0000001C
CCPR2L                            0000001B
CHS0                              00000002
CHS1                              00000003
CHS2                              00000004
CHS3                              00000005
CKE                               00000006
CKP                               00000004
CM1CON0                           00000107
CM2CON0                           00000108
CM2CON1                           00000109
CONDICIONES                       000000D3
CONDICIONES_MODOS                 000000D0
CONDICION_MOD0                    000001B5
CONDICION_MOD1                    000000D5
CONFIG_I                          000001CD
CONFIG_IS                         000001FD
CONT1                             0000001A
CONT2                             0000001B
CONT_AH                           00000009
CONT_AM                           00000008
CONT_DD                           0000000B
CONT_DM                           0000000A
CONT_RH                           00000007
CONT_RM                           00000006
CONT_TRM0                         00000002
CONT_TRM0_S                       00000003
CONT_TRM1                         00000001
CONT_TRM2                         00000000
CREN                              00000004
CSRC                              00000007
D                                 00000005
DATA_ADDRESS                      00000005
DC                                00000001
DC1B0                             00000004
DC1B1                             00000005
DC2B0                             00000004
DC2B1                             00000005
DELAY_2MS                         000001C2
DELAY_768US                       000001C8
DICIEMBRE                         000001A4
DISPLAY                           0000003B
DISPLAY_0                         00000042
DISPLAY_1                         00000047
DISPLAY_2                         0000004C
DISPLAY_3                         00000051
D_A                               00000005
D_NOT_A                           00000005
ECCPAS                            0000009C
ECCPAS0                           00000004
ECCPAS1                           00000005
ECCPAS2                           00000006
ECCPASE                           00000007
MPASM 5.84                          MAIN.ASM   9-22-2020  9:26:37         PAGE 20


SYMBOL TABLE
  LABEL                             VALUE 

EDICICION_DIAS                    00000096
EDICICION_HORAS                   0000004A
EDICION                           0000001C
EDICION_FECHA                     00000078
EDICION_RELOJ                     0000002B
EDIT                              0000001D
EDIT_2                            00000032
EEADR                             0000010D
EEADRH                            0000010F
EECON1                            0000018C
EECON2                            0000018D
EEDAT                             0000010C
EEDATA                            0000010C
EEDATH                            0000010E
EEIE                              00000004
EEIF                              00000004
EEPGD                             00000007
ENERO                             000000D9
F                                 00000001
FEBRERO                           000000EA
FECHA                             0000005F
FERR                              00000002
FIN                               000001C1
FIN_DISPLAY                       00000056
FLAGS                             0000001E
FSR                               00000004
FVREN                             00000000
GCEN                              00000007
GIE                               00000007
GO                                00000001
GO_DONE                           00000001
GO_NOT_DONE                       00000001
HTS                               00000002
I2C_DATA                          00000005
I2C_READ                          00000002
I2C_START                         00000003
I2C_STOP                          00000004
INDF                              00000000
INTCON                            0000000B
INTE                              00000004
INTEDG                            00000006
INTF                              00000001
INT_TRM0                          0000000A
IOCB                              00000096
IOCB0                             00000000
IOCB1                             00000001
IOCB2                             00000002
IOCB3                             00000003
IOCB4                             00000004
IOCB5                             00000005
IOCB6                             00000006
IOCB7                             00000007
IRCF0                             00000004
MPASM 5.84                          MAIN.ASM   9-22-2020  9:26:37         PAGE 21


SYMBOL TABLE
  LABEL                             VALUE 

IRCF1                             00000005
IRCF2                             00000006
IRP                               00000007
ISR                               00000007
JULIO                             0000014F
JUNIO                             0000013E
LED_500MS                         00000015
LIMITACIONES_HD                   0000006E
LIMITACIONES_HR                   00000027
LOAD                              00000029
LOOP                              00000002
LOOP_DELAY                        000001C4
LTS                               00000001
MARZO                             0000010B
MAYO                              0000012D
MC1OUT                            00000007
MC2OUT                            00000006
MES_I                             000000D6
MINUTOS                           00000016
MODO                              0000000D
MSK                               00000093
MSK0                              00000000
MSK1                              00000001
MSK2                              00000002
MSK3                              00000003
MSK4                              00000004
MSK5                              00000005
MSK6                              00000006
MSK7                              00000007
NIBH_H                            00000010
NIBH_L                            00000011
NIBM_H                            00000013
NIBM_L                            00000014
NOT_A                             00000005
NOT_ADDRESS                       00000005
NOT_BO                            00000000
NOT_BOR                           00000000
NOT_DONE                          00000001
NOT_PD                            00000003
NOT_POR                           00000001
NOT_RBPU                          00000007
NOT_RC8                           00000006
NOT_T1SYNC                        00000002
NOT_TO                            00000004
NOT_TX8                           00000006
NOT_W                             00000002
NOT_WRITE                         00000002
NOVIEMBRE                         00000193
OCTUBRE                           00000182
OERR                              00000001
OPTION_REG                        00000081
OSCCON                            0000008F
OSCTUNE                           00000090
MPASM 5.84                          MAIN.ASM   9-22-2020  9:26:37         PAGE 22


SYMBOL TABLE
  LABEL                             VALUE 

OSFIE                             00000007
OSFIF                             00000007
OSTS                              00000003
P                                 00000004
P1M0                              00000006
P1M1                              00000007
PCL                               00000002
PCLATH                            0000000A
PCON                              0000008E
PDC0                              00000000
PDC1                              00000001
PDC2                              00000002
PDC3                              00000003
PDC4                              00000004
PDC5                              00000005
PDC6                              00000006
PEIE                              00000006
PEN                               00000002
PIE1                              0000008C
PIE2                              0000008D
PIR1                              0000000C
PIR2                              0000000D
PORTA                             00000005
PORTB                             00000006
PORTC                             00000007
PORTD                             00000008
PORTE                             00000009
PR2                               00000092
PRSEN                             00000007
PS0                               00000000
PS1                               00000001
PS2                               00000002
PSA                               00000003
PSSAC0                            00000002
PSSAC1                            00000003
PSSBD0                            00000000
PSSBD1                            00000001
PSTRCON                           0000009D
PULSR                             00000002
PULSS                             00000003
PWM1CON                           0000009B
R                                 00000002
RA0                               00000000
RA1                               00000001
RA2                               00000002
RA3                               00000003
RA4                               00000004
RA5                               00000005
RA6                               00000006
RA7                               00000007
RB0                               00000000
RB1                               00000001
RB2                               00000002
MPASM 5.84                          MAIN.ASM   9-22-2020  9:26:37         PAGE 23


SYMBOL TABLE
  LABEL                             VALUE 

RB3                               00000003
RB4                               00000004
RB5                               00000005
RB6                               00000006
RB7                               00000007
RBIE                              00000003
RBIF                              00000000
RC0                               00000000
RC1                               00000001
RC2                               00000002
RC3                               00000003
RC4                               00000004
RC5                               00000005
RC6                               00000006
RC7                               00000007
RC8_9                             00000006
RC9                               00000006
RCD8                              00000000
RCEN                              00000003
RCIDL                             00000006
RCIE                              00000005
RCIF                              00000005
RCREG                             0000001A
RCSTA                             00000018
RD                                00000000
RD0                               00000000
RD1                               00000001
RD2                               00000002
RD3                               00000003
RD4                               00000004
RD5                               00000005
RD6                               00000006
RD7                               00000007
RE0                               00000000
RE1                               00000001
RE2                               00000002
RE3                               00000003
READ_WRITE                        00000002
RELOJ                             0000001A
RP0                               00000005
RP1                               00000006
RSEN                              00000001
RX9                               00000006
RX9D                              00000000
R_NOT_W                           00000002
R_W                               00000002
S                                 00000003
SAVE                              00000004
SBOREN                            00000004
SCKP                              00000004
SCS                               00000000
SELECCION_MODOS                   00000009
SEN                               00000000
MPASM 5.84                          MAIN.ASM   9-22-2020  9:26:37         PAGE 24


SYMBOL TABLE
  LABEL                             VALUE 

SENDB                             00000003
SEPARAR_L                         000000BE
SEPARAR_NHIGH                     000000C8
SEPARAR_NIBBLES                   000000B4
SEPTIEMBRE                        00000171
SMP                               00000007
SPBRG                             00000099
SPBRGH                            0000009A
SPEN                              00000007
SR0                               00000006
SR1                               00000007
SRCON                             00000185
SREN                              00000005
SSPADD                            00000093
SSPBUF                            00000013
SSPCON                            00000014
SSPCON2                           00000091
SSPEN                             00000005
SSPIE                             00000003
SSPIF                             00000003
SSPM0                             00000000
SSPM1                             00000001
SSPM2                             00000002
SSPM3                             00000003
SSPMSK                            00000093
SSPOV                             00000006
SSPSTAT                           00000094
START                             00000000
STATUS                            00000003
STRA                              00000000
STRB                              00000001
STRC                              00000002
STRD                              00000003
STRSYNC                           00000004
SWDTEN                            00000000
SYNC                              00000004
T0CS                              00000005
T0IE                              00000005
T0IF                              00000002
T0SE                              00000004
T1CKPS0                           00000004
T1CKPS1                           00000005
T1CON                             00000010
T1GINV                            00000007
T1GIV                             00000007
T1GSS                             00000001
T1INSYNC                          00000002
T1OSCEN                           00000003
T1SYNC                            00000002
T2CKPS0                           00000000
T2CKPS1                           00000001
T2CON                             00000012
TABLA_MESES                       00000058
MPASM 5.84                          MAIN.ASM   9-22-2020  9:26:37         PAGE 25


SYMBOL TABLE
  LABEL                             VALUE 

TABLE                             0000002F
TEMP_STATUS                       00000005
TEMP_W                            00000004
TMR0                              00000001
TMR0IE                            00000005
TMR0IF                            00000002
TMR1                              0000000E
TMR1CS                            00000001
TMR1GE                            00000006
TMR1H                             0000000F
TMR1IE                            00000000
TMR1IF                            00000000
TMR1L                             0000000E
TMR1ON                            00000000
TMR2                              00000011
TMR2IE                            00000001
TMR2IF                            00000001
TMR2ON                            00000002
TOGGLE_B0                         00000067
TOUTPS0                           00000003
TOUTPS1                           00000004
TOUTPS2                           00000005
TOUTPS3                           00000006
TRISA                             00000085
TRISA0                            00000000
TRISA1                            00000001
TRISA2                            00000002
TRISA3                            00000003
TRISA4                            00000004
TRISA5                            00000005
TRISA6                            00000006
TRISA7                            00000007
TRISB                             00000086
TRISB0                            00000000
TRISB1                            00000001
TRISB2                            00000002
TRISB3                            00000003
TRISB4                            00000004
TRISB5                            00000005
TRISB6                            00000006
TRISB7                            00000007
TRISC                             00000087
TRISC0                            00000000
TRISC1                            00000001
TRISC2                            00000002
TRISC3                            00000003
TRISC4                            00000004
TRISC5                            00000005
TRISC6                            00000006
TRISC7                            00000007
TRISD                             00000088
TRISD0                            00000000
TRISD1                            00000001
MPASM 5.84                          MAIN.ASM   9-22-2020  9:26:37         PAGE 26


SYMBOL TABLE
  LABEL                             VALUE 

TRISD2                            00000002
TRISD3                            00000003
TRISD4                            00000004
TRISD5                            00000005
TRISD6                            00000006
TRISD7                            00000007
TRISE                             00000089
TRISE0                            00000000
TRISE1                            00000001
TRISE2                            00000002
TRISE3                            00000003
TRMT                              00000001
TUN0                              00000000
TUN1                              00000001
TUN2                              00000002
TUN3                              00000003
TUN4                              00000004
TX8_9                             00000006
TX9                               00000006
TX9D                              00000000
TXD8                              00000000
TXEN                              00000005
TXIE                              00000004
TXIF                              00000004
TXREG                             00000019
TXSTA                             00000098
UA                                00000001
ULPWUE                            00000005
ULPWUIE                           00000002
ULPWUIF                           00000002
VAR_H                             0000000F
VAR_M                             00000012
VAR_TEMP_H                        00000017
VAR_TEMP_HL                       00000019
VAR_TEMP_MH                       00000016
VAR_TEMP_ML                       00000018
VCFG0                             00000004
VCFG1                             00000005
VR0                               00000000
VR1                               00000001
VR2                               00000002
VR3                               00000003
VRCON                             00000097
VREN                              00000007
VROE                              00000006
VRR                               00000005
VRSS                              00000004
W                                 00000000
WCOL                              00000007
WDTCON                            00000105
WDTPS0                            00000001
WDTPS1                            00000002
WDTPS2                            00000003
MPASM 5.84                          MAIN.ASM   9-22-2020  9:26:37         PAGE 27


SYMBOL TABLE
  LABEL                             VALUE 

WDTPS3                            00000004
WPUB                              00000095
WPUB0                             00000000
WPUB1                             00000001
WPUB2                             00000002
WPUB3                             00000003
WPUB4                             00000004
WPUB5                             00000005
WPUB6                             00000006
WPUB7                             00000007
WR                                00000001
WREN                              00000002
WRERR                             00000003
WUE                               00000001
Z                                 00000002
_BOR21V                           00003EFF
_BOR40V                           00003FFF
_BOR4V_BOR21V                     00003EFF
_BOR4V_BOR40V                     00003FFF
_BOREN_NSLEEP                     00003EFF
_BOREN_OFF                        00003CFF
_BOREN_ON                         00003FFF
_BOREN_SBODEN                     00003DFF
_BOR_NSLEEP                       00003EFF
_BOR_OFF                          00003CFF
_BOR_ON                           00003FFF
_BOR_SBODEN                       00003DFF
_CONFIG1                          00002007
_CONFIG2                          00002008
_CPD_OFF                          00003FFF
_CPD_ON                           00003F7F
_CP_OFF                           00003FFF
_CP_ON                            00003FBF
_DEBUG_OFF                        00003FFF
_DEBUG_ON                         00001FFF
_DEVID1                           00002006
_EC_OSC                           00003FFB
_EXTRC                            00003FFF
_EXTRCIO                          00003FFE
_EXTRC_OSC_CLKOUT                 00003FFF
_EXTRC_OSC_NOCLKOUT               00003FFE
_FCMEN_OFF                        000037FF
_FCMEN_ON                         00003FFF
_FOSC_EC                          00003FFB
_FOSC_EXTRC_CLKOUT                00003FFF
_FOSC_EXTRC_NOCLKOUT              00003FFE
_FOSC_HS                          00003FFA
_FOSC_INTRC_CLKOUT                00003FFD
_FOSC_INTRC_NOCLKOUT              00003FFC
_FOSC_LP                          00003FF8
_FOSC_XT                          00003FF9
_HS_OSC                           00003FFA
_IDLOC0                           00002000
MPASM 5.84                          MAIN.ASM   9-22-2020  9:26:37         PAGE 28


SYMBOL TABLE
  LABEL                             VALUE 

_IDLOC1                           00002001
_IDLOC2                           00002002
_IDLOC3                           00002003
_IESO_OFF                         00003BFF
_IESO_ON                          00003FFF
_INTOSC                           00003FFD
_INTOSCIO                         00003FFC
_INTRC_OSC_CLKOUT                 00003FFD
_INTRC_OSC_NOCLKOUT               00003FFC
_LP_OSC                           00003FF8
_LVP_OFF                          00002FFF
_LVP_ON                           00003FFF
_MAIN_PROG_0037                   00000037
_MAIN_PROG_003D                   0000003D
_MAIN_PROG_0042                   00000042
_MAIN_PROG_0047                   00000047
_MAIN_PROG_004D                   0000004D
_MAIN_PROG_0052                   00000052
_MAIN_PROG_0057                   00000057
_MAIN_PROG_005C                   0000005C
_MAIN_PROG_0071                   00000071
_MAIN_PROG_0082                   00000082
_MAIN_PROG_0088                   00000088
_MAIN_PROG_008D                   0000008D
_MAIN_PROG_0092                   00000092
_MAIN_PROG_0099                   00000099
_MAIN_PROG_009E                   0000009E
_MAIN_PROG_00A3                   000000A3
_MAIN_PROG_00A8                   000000A8
_MAIN_PROG_00DC                   000000DC
_MAIN_PROG_00ED                   000000ED
_MAIN_PROG_00F5                   000000F5
_MAIN_PROG_00FD                   000000FD
_MAIN_PROG_010E                   0000010E
_MAIN_PROG_011F                   0000011F
_MAIN_PROG_0130                   00000130
_MAIN_PROG_0141                   00000141
_MAIN_PROG_0152                   00000152
_MAIN_PROG_0163                   00000163
_MAIN_PROG_0174                   00000174
_MAIN_PROG_0185                   00000185
_MAIN_PROG_0196                   00000196
_MAIN_PROG_01A7                   000001A7
_MAIN_PROG_01B8                   000001B8
_MAIN_PROG_01CB                   000001CB
_MCLRE_OFF                        00003FDF
_MCLRE_ON                         00003FFF
_PWRTE_OFF                        00003FFF
_PWRTE_ON                         00003FEF
_WDTE_OFF                         00003FF7
_WDTE_ON                          00003FFF
_WDT_OFF                          00003FF7
_WDT_ON                           00003FFF
MPASM 5.84                          MAIN.ASM   9-22-2020  9:26:37         PAGE 29


SYMBOL TABLE
  LABEL                             VALUE 

_WRT_1FOURTH                      00003BFF
_WRT_256                          00003DFF
_WRT_HALF                         000039FF
_WRT_OFF                          00003FFF
_XT_OSC                           00003FF9
__16F887                          00000001

Errors   :     0
Warnings :     2 reported,     0 suppressed
Messages :     9 reported,     0 suppressed

